
ece30test.lpc2148.elf:     file format elf32-littlearm

Sections:
Idx Name          Size      VMA       LMA       File off  Algn
  0 .text         00008e44  00004000  00004000  00004000  2**4
                  CONTENTS, ALLOC, LOAD, READONLY, CODE
  1 .ARM.exidx    00000008  0000ce44  0000ce44  0000ce44  2**2
                  CONTENTS, ALLOC, LOAD, READONLY, DATA
  2 .rodata       000001e8  0000ce50  0000ce50  0000ce50  2**3
                  CONTENTS, ALLOC, LOAD, READONLY, DATA
  3 .data         000008c0  40000000  0000d038  00010000  2**3
                  CONTENTS, ALLOC, LOAD, DATA
  4 .bss          00000070  400008c0  0000d8f8  000108c0  2**2
                  ALLOC
  5 .comment      0000002a  00000000  00000000  000108c0  2**0
                  CONTENTS, READONLY
  6 .debug_aranges 00000180  00000000  00000000  000108f0  2**3
                  CONTENTS, READONLY, DEBUGGING
  7 .debug_pubnames 00000084  00000000  00000000  00010a70  2**0
                  CONTENTS, READONLY, DEBUGGING
  8 .debug_info   0000124f  00000000  00000000  00010af4  2**0
                  CONTENTS, READONLY, DEBUGGING
  9 .debug_abbrev 000003d7  00000000  00000000  00011d43  2**0
                  CONTENTS, READONLY, DEBUGGING
 10 .debug_line   0000084b  00000000  00000000  0001211a  2**0
                  CONTENTS, READONLY, DEBUGGING
 11 .debug_frame  00000100  00000000  00000000  00012968  2**2
                  CONTENTS, READONLY, DEBUGGING
 12 .debug_str    000001c3  00000000  00000000  00012a68  2**0
                  CONTENTS, READONLY, DEBUGGING
 13 .debug_loc    0000143f  00000000  00000000  00012c2b  2**0
                  CONTENTS, READONLY, DEBUGGING
 14 .debug_ranges 00000168  00000000  00000000  0001406a  2**0
                  CONTENTS, READONLY, DEBUGGING
 15 .ARM.attributes 00000032  00000000  00000000  000141d2  2**0
                  CONTENTS, READONLY
 16 .debug_pubtypes 000000b2  00000000  00000000  00014204  2**0
                  CONTENTS, READONLY, DEBUGGING

Disassembly of section .text:

00004000 <__cs3_region_start_rom>:
    4000:	e321f09f 	msr	CPSR_c, #159	; 0x9f
    4004:	e59fd03c 	ldr	sp, [pc, #60]	; 4048 <__cs3_region_start_rom+0x48>
    4008:	e59f103c 	ldr	r1, [pc, #60]	; 404c <__cs3_region_start_rom+0x4c>
    400c:	e59f203c 	ldr	r2, [pc, #60]	; 4050 <__cs3_region_start_rom+0x50>
    4010:	e59f303c 	ldr	r3, [pc, #60]	; 4054 <__cs3_region_start_rom+0x54>
    4014:	e1520003 	cmp	r2, r3
    4018:	34910004 	ldrcc	r0, [r1], #4
    401c:	34820004 	strcc	r0, [r2], #4
    4020:	3afffffb 	bcc	4014 <__cs3_region_start_rom+0x14>
    4024:	e3a00000 	mov	r0, #0
    4028:	e59f1028 	ldr	r1, [pc, #40]	; 4058 <__cs3_region_start_rom+0x58>
    402c:	e59f2028 	ldr	r2, [pc, #40]	; 405c <__cs3_region_start_rom+0x5c>
    4030:	e1510002 	cmp	r1, r2
    4034:	34810004 	strcc	r0, [r1], #4
    4038:	3afffffc 	bcc	4030 <__cs3_region_start_rom+0x30>
    403c:	eb001d0c 	bl	b474 <openlpc_init>
    4040:	e321f01f 	msr	CPSR_c, #31
    4044:	ea000005 	b	4060 <main>
    4048:	40007ffc 	.word	0x40007ffc
    404c:	0000d038 	.word	0x0000d038
    4050:	40000000 	.word	0x40000000
    4054:	400008c0 	.word	0x400008c0
    4058:	400008c0 	.word	0x400008c0
    405c:	40000930 	.word	0x40000930

00004060 <main>:
    4060:	e92d40f8 	push	{r3, r4, r5, r6, r7, lr}
    4064:	e59f4048 	ldr	r4, [pc, #72]	; 40b4 <main+0x54>
    4068:	e5140fdf 	ldr	r0, [r4, #-4063]	; 0xfffff021
    406c:	e3803641 	orr	r3, r0, #68157440	; 0x4100000
    4070:	e5043fdf 	str	r3, [r4, #-4063]	; 0xfffff021
    4074:	e3a05000 	mov	r5, #0
    4078:	e3a07601 	mov	r7, #1048576	; 0x100000
    407c:	e3a06301 	mov	r6, #67108864	; 0x4000000
    4080:	e1a01005 	mov	r1, r5
    4084:	e59f002c 	ldr	r0, [pc, #44]	; 40b8 <main+0x58>
    4088:	eb000015 	bl	40e4 <printf>
    408c:	e5047fc3 	str	r7, [r4, #-4035]	; 0xfffff03d
    4090:	e3a000c8 	mov	r0, #200	; 0xc8
    4094:	e5046fc7 	str	r6, [r4, #-4039]	; 0xfffff039
    4098:	eb001cba 	bl	b388 <delay_ms>
    409c:	e5047fc7 	str	r7, [r4, #-4039]	; 0xfffff039
    40a0:	e3a000c8 	mov	r0, #200	; 0xc8
    40a4:	e5046fc3 	str	r6, [r4, #-4035]	; 0xfffff03d
    40a8:	e2855001 	add	r5, r5, #1
    40ac:	eb001cb5 	bl	b388 <delay_ms>
    40b0:	eafffff2 	b	4080 <main+0x20>
    40b4:	3fffcfff 	.word	0x3fffcfff
    40b8:	0000ce50 	.word	0x0000ce50

000040bc <_printf_r>:
    40bc:	e92d000e 	push	{r1, r2, r3}
    40c0:	e92d4003 	push	{r0, r1, lr}
    40c4:	e59d200c 	ldr	r2, [sp, #12]
    40c8:	e28d3010 	add	r3, sp, #16
    40cc:	e5901008 	ldr	r1, [r0, #8]
    40d0:	e58d3004 	str	r3, [sp, #4]
    40d4:	eb00000f 	bl	4118 <_vfprintf_r>
    40d8:	e8bd400c 	pop	{r2, r3, lr}
    40dc:	e28dd00c 	add	sp, sp, #12
    40e0:	e12fff1e 	bx	lr

000040e4 <printf>:
    40e4:	e92d000f 	push	{r0, r1, r2, r3}
    40e8:	e92d4007 	push	{r0, r1, r2, lr}
    40ec:	e59f3020 	ldr	r3, [pc, #32]	; 4114 <printf+0x30>
    40f0:	e5930000 	ldr	r0, [r3]
    40f4:	e59d2010 	ldr	r2, [sp, #16]
    40f8:	e28d3014 	add	r3, sp, #20
    40fc:	e5901008 	ldr	r1, [r0, #8]
    4100:	e58d3004 	str	r3, [sp, #4]
    4104:	eb000003 	bl	4118 <_vfprintf_r>
    4108:	e8bd400e 	pop	{r1, r2, r3, lr}
    410c:	e28dd010 	add	sp, sp, #16
    4110:	e12fff1e 	bx	lr
    4114:	40000428 	.word	0x40000428

00004118 <_vfprintf_r>:
    4118:	e92d4ff0 	push	{r4, r5, r6, r7, r8, r9, sl, fp, lr}
    411c:	e24ddf95 	sub	sp, sp, #596	; 0x254
    4120:	e1a07000 	mov	r7, r0
    4124:	e1a06001 	mov	r6, r1
    4128:	e1a05002 	mov	r5, r2
    412c:	e1a0a003 	mov	sl, r3
    4130:	eb000e8f 	bl	7b74 <_localeconv_r>
    4134:	e5900000 	ldr	r0, [r0]
    4138:	e58d0044 	str	r0, [sp, #68]	; 0x44
    413c:	eb0013ea 	bl	90ec <strlen>
    4140:	e3570000 	cmp	r7, #0
    4144:	e58d0040 	str	r0, [sp, #64]	; 0x40
    4148:	0a000003 	beq	415c <_vfprintf_r+0x44>
    414c:	e5973038 	ldr	r3, [r7, #56]	; 0x38
    4150:	e3530000 	cmp	r3, #0
    4154:	01a00007 	moveq	r0, r7
    4158:	0b000ce7 	bleq	74fc <__sinit>
    415c:	e1d630bc 	ldrh	r3, [r6, #12]
    4160:	e3130a02 	tst	r3, #8192	; 0x2000
    4164:	03833a02 	orreq	r3, r3, #8192	; 0x2000
    4168:	01c630bc 	strheq	r3, [r6, #12]
    416c:	05963064 	ldreq	r3, [r6, #100]	; 0x64
    4170:	03c33a02 	biceq	r3, r3, #8192	; 0x2000
    4174:	05863064 	streq	r3, [r6, #100]	; 0x64
    4178:	e1d630bc 	ldrh	r3, [r6, #12]
    417c:	e3130008 	tst	r3, #8
    4180:	0a000002 	beq	4190 <_vfprintf_r+0x78>
    4184:	e5963010 	ldr	r3, [r6, #16]
    4188:	e3530000 	cmp	r3, #0
    418c:	1a000006 	bne	41ac <_vfprintf_r+0x94>
    4190:	e1a00007 	mov	r0, r7
    4194:	e1a01006 	mov	r1, r6
    4198:	eb000693 	bl	5bec <__swsetup_r>
    419c:	e3500000 	cmp	r0, #0
    41a0:	13e02000 	mvnne	r2, #0
    41a4:	158d2030 	strne	r2, [sp, #48]	; 0x30
    41a8:	1a000680 	bne	5bb0 <_vfprintf_r+0x1a98>
    41ac:	e1d630bc 	ldrh	r3, [r6, #12]
    41b0:	e203201a 	and	r2, r3, #26
    41b4:	e352000a 	cmp	r2, #10
    41b8:	1a00002b 	bne	426c <_vfprintf_r+0x154>
    41bc:	e1d610fe 	ldrsh	r1, [r6, #14]
    41c0:	e3510000 	cmp	r1, #0
    41c4:	e1d620be 	ldrh	r2, [r6, #14]
    41c8:	ba000027 	blt	426c <_vfprintf_r+0x154>
    41cc:	e28d0c01 	add	r0, sp, #256	; 0x100
    41d0:	e3c33002 	bic	r3, r3, #2
    41d4:	e1c036b8 	strh	r3, [r0, #104]	; 0x68
    41d8:	e5963064 	ldr	r3, [r6, #100]	; 0x64
    41dc:	e58d31c0 	str	r3, [sp, #448]	; 0x1c0
    41e0:	e596301c 	ldr	r3, [r6, #28]
    41e4:	e58d3178 	str	r3, [sp, #376]	; 0x178
    41e8:	e5963024 	ldr	r3, [r6, #36]	; 0x24
    41ec:	e58d3180 	str	r3, [sp, #384]	; 0x180
    41f0:	e28d305c 	add	r3, sp, #92	; 0x5c
    41f4:	e58d315c 	str	r3, [sp, #348]	; 0x15c
    41f8:	e58d316c 	str	r3, [sp, #364]	; 0x16c
    41fc:	e3a03c01 	mov	r3, #256	; 0x100
    4200:	e58d3164 	str	r3, [sp, #356]	; 0x164
    4204:	e58d3170 	str	r3, [sp, #368]	; 0x170
    4208:	e3a03000 	mov	r3, #0
    420c:	e1c026ba 	strh	r2, [r0, #106]	; 0x6a
    4210:	e58d3174 	str	r3, [sp, #372]	; 0x174
    4214:	e1a00007 	mov	r0, r7
    4218:	e28d1f57 	add	r1, sp, #348	; 0x15c
    421c:	e1a02005 	mov	r2, r5
    4220:	e1a0300a 	mov	r3, sl
    4224:	ebffffbb 	bl	4118 <_vfprintf_r>
    4228:	e3500000 	cmp	r0, #0
    422c:	e58d0030 	str	r0, [sp, #48]	; 0x30
    4230:	ba000006 	blt	4250 <_vfprintf_r+0x138>
    4234:	e28d1f57 	add	r1, sp, #348	; 0x15c
    4238:	e1a00007 	mov	r0, r7
    423c:	eb000bd7 	bl	71a0 <_fflush_r>
    4240:	e59d1030 	ldr	r1, [sp, #48]	; 0x30
    4244:	e3500000 	cmp	r0, #0
    4248:	13e01000 	mvnne	r1, #0
    424c:	e58d1030 	str	r1, [sp, #48]	; 0x30
    4250:	e28d2c01 	add	r2, sp, #256	; 0x100
    4254:	e1d236b8 	ldrh	r3, [r2, #104]	; 0x68
    4258:	e3130040 	tst	r3, #64	; 0x40
    425c:	11d630bc 	ldrhne	r3, [r6, #12]
    4260:	13833040 	orrne	r3, r3, #64	; 0x40
    4264:	11c630bc 	strhne	r3, [r6, #12]
    4268:	ea000650 	b	5bb0 <_vfprintf_r+0x1a98>
    426c:	e3a03000 	mov	r3, #0
    4270:	e28d4f71 	add	r4, sp, #452	; 0x1c4
    4274:	e58d422c 	str	r4, [sp, #556]	; 0x22c
    4278:	e58d3234 	str	r3, [sp, #564]	; 0x234
    427c:	e58d3230 	str	r3, [sp, #560]	; 0x230
    4280:	e58d5028 	str	r5, [sp, #40]	; 0x28
    4284:	e58d3024 	str	r3, [sp, #36]	; 0x24
    4288:	e58d3038 	str	r3, [sp, #56]	; 0x38
    428c:	e58d303c 	str	r3, [sp, #60]	; 0x3c
    4290:	e58d3050 	str	r3, [sp, #80]	; 0x50
    4294:	e58d304c 	str	r3, [sp, #76]	; 0x4c
    4298:	e58d3030 	str	r3, [sp, #48]	; 0x30
    429c:	e59d3028 	ldr	r3, [sp, #40]	; 0x28
    42a0:	e5d32000 	ldrb	r2, [r3]
    42a4:	e3520025 	cmp	r2, #37	; 0x25
    42a8:	13520000 	cmpne	r2, #0
    42ac:	e1a05003 	mov	r5, r3
    42b0:	e2833001 	add	r3, r3, #1
    42b4:	1afffff9 	bne	42a0 <_vfprintf_r+0x188>
    42b8:	e59d3028 	ldr	r3, [sp, #40]	; 0x28
    42bc:	e0558003 	subs	r8, r5, r3
    42c0:	0a000014 	beq	4318 <_vfprintf_r+0x200>
    42c4:	e5843000 	str	r3, [r4]
    42c8:	e59d3234 	ldr	r3, [sp, #564]	; 0x234
    42cc:	e0833008 	add	r3, r3, r8
    42d0:	e5848004 	str	r8, [r4, #4]
    42d4:	e58d3234 	str	r3, [sp, #564]	; 0x234
    42d8:	e59d3230 	ldr	r3, [sp, #560]	; 0x230
    42dc:	e2833001 	add	r3, r3, #1
    42e0:	e3530007 	cmp	r3, #7
    42e4:	e58d3230 	str	r3, [sp, #560]	; 0x230
    42e8:	d2844008 	addle	r4, r4, #8
    42ec:	da000006 	ble	430c <_vfprintf_r+0x1f4>
    42f0:	e1a00007 	mov	r0, r7
    42f4:	e1a01006 	mov	r1, r6
    42f8:	e28d2f8b 	add	r2, sp, #556	; 0x22c
    42fc:	eb001381 	bl	9108 <__sprint_r>
    4300:	e3500000 	cmp	r0, #0
    4304:	1a000624 	bne	5b9c <_vfprintf_r+0x1a84>
    4308:	e28d4f71 	add	r4, sp, #452	; 0x1c4
    430c:	e59d9030 	ldr	r9, [sp, #48]	; 0x30
    4310:	e0899008 	add	r9, r9, r8
    4314:	e58d9030 	str	r9, [sp, #48]	; 0x30
    4318:	e5d53000 	ldrb	r3, [r5]
    431c:	e3530000 	cmp	r3, #0
    4320:	0a000617 	beq	5b84 <_vfprintf_r+0x1a6c>
    4324:	e3a03000 	mov	r3, #0
    4328:	e2855001 	add	r5, r5, #1
    432c:	e58d5028 	str	r5, [sp, #40]	; 0x28
    4330:	e3e0c000 	mvn	ip, #0
    4334:	e1a05003 	mov	r5, r3
    4338:	e5cd324f 	strb	r3, [sp, #591]	; 0x24f
    433c:	e58d302c 	str	r3, [sp, #44]	; 0x2c
    4340:	e58dc01c 	str	ip, [sp, #28]
    4344:	e59d3028 	ldr	r3, [sp, #40]	; 0x28
    4348:	e1a02005 	mov	r2, r5
    434c:	e1a0100c 	mov	r1, ip
    4350:	ea000002 	b	4360 <_vfprintf_r+0x248>
    4354:	e1a0a003 	mov	sl, r3
    4358:	e3e01000 	mvn	r1, #0
    435c:	e1a03000 	mov	r3, r0
    4360:	e4d38001 	ldrb	r8, [r3], #1
    4364:	e2480020 	sub	r0, r8, #32
    4368:	e3500058 	cmp	r0, #88	; 0x58
    436c:	979ff100 	ldrls	pc, [pc, r0, lsl #2]
    4370:	ea0002e0 	b	4ef8 <_vfprintf_r+0xde0>
    4374:	000044d8 	.word	0x000044d8
    4378:	00004ef8 	.word	0x00004ef8
    437c:	00004ef8 	.word	0x00004ef8
    4380:	000044ec 	.word	0x000044ec
    4384:	00004ef8 	.word	0x00004ef8
    4388:	00004ef8 	.word	0x00004ef8
    438c:	00004ef8 	.word	0x00004ef8
    4390:	00004ef8 	.word	0x00004ef8
    4394:	00004ef8 	.word	0x00004ef8
    4398:	00004ef8 	.word	0x00004ef8
    439c:	000044f4 	.word	0x000044f4
    43a0:	00004518 	.word	0x00004518
    43a4:	00004ef8 	.word	0x00004ef8
    43a8:	00004510 	.word	0x00004510
    43ac:	00004524 	.word	0x00004524
    43b0:	00004ef8 	.word	0x00004ef8
    43b4:	00004580 	.word	0x00004580
    43b8:	00004588 	.word	0x00004588
    43bc:	00004588 	.word	0x00004588
    43c0:	00004588 	.word	0x00004588
    43c4:	00004588 	.word	0x00004588
    43c8:	00004588 	.word	0x00004588
    43cc:	00004588 	.word	0x00004588
    43d0:	00004588 	.word	0x00004588
    43d4:	00004588 	.word	0x00004588
    43d8:	00004588 	.word	0x00004588
    43dc:	00004ef8 	.word	0x00004ef8
    43e0:	00004ef8 	.word	0x00004ef8
    43e4:	00004ef8 	.word	0x00004ef8
    43e8:	00004ef8 	.word	0x00004ef8
    43ec:	00004ef8 	.word	0x00004ef8
    43f0:	00004ef8 	.word	0x00004ef8
    43f4:	00004ef8 	.word	0x00004ef8
    43f8:	00004ef8 	.word	0x00004ef8
    43fc:	00004ef8 	.word	0x00004ef8
    4400:	00004ef8 	.word	0x00004ef8
    4404:	00004604 	.word	0x00004604
    4408:	00004690 	.word	0x00004690
    440c:	00004ef8 	.word	0x00004ef8
    4410:	00004690 	.word	0x00004690
    4414:	00004ef8 	.word	0x00004ef8
    4418:	00004ef8 	.word	0x00004ef8
    441c:	00004ef8 	.word	0x00004ef8
    4420:	00004ef8 	.word	0x00004ef8
    4424:	000045b4 	.word	0x000045b4
    4428:	00004ef8 	.word	0x00004ef8
    442c:	00004ef8 	.word	0x00004ef8
    4430:	00004b04 	.word	0x00004b04
    4434:	00004ef8 	.word	0x00004ef8
    4438:	00004ef8 	.word	0x00004ef8
    443c:	00004ef8 	.word	0x00004ef8
    4440:	00004ef8 	.word	0x00004ef8
    4444:	00004ef8 	.word	0x00004ef8
    4448:	00004c38 	.word	0x00004c38
    444c:	00004ef8 	.word	0x00004ef8
    4450:	00004ef8 	.word	0x00004ef8
    4454:	00004cc4 	.word	0x00004cc4
    4458:	00004ef8 	.word	0x00004ef8
    445c:	00004ef8 	.word	0x00004ef8
    4460:	00004ef8 	.word	0x00004ef8
    4464:	00004ef8 	.word	0x00004ef8
    4468:	00004ef8 	.word	0x00004ef8
    446c:	00004ef8 	.word	0x00004ef8
    4470:	00004ef8 	.word	0x00004ef8
    4474:	00004ef8 	.word	0x00004ef8
    4478:	00004ef8 	.word	0x00004ef8
    447c:	00004ef8 	.word	0x00004ef8
    4480:	000045e0 	.word	0x000045e0
    4484:	00004618 	.word	0x00004618
    4488:	00004690 	.word	0x00004690
    448c:	00004690 	.word	0x00004690
    4490:	00004690 	.word	0x00004690
    4494:	000045bc 	.word	0x000045bc
    4498:	00004618 	.word	0x00004618
    449c:	00004ef8 	.word	0x00004ef8
    44a0:	00004ef8 	.word	0x00004ef8
    44a4:	000045c4 	.word	0x000045c4
    44a8:	00004ef8 	.word	0x00004ef8
    44ac:	00004aac 	.word	0x00004aac
    44b0:	00004b18 	.word	0x00004b18
    44b4:	00004b8c 	.word	0x00004b8c
    44b8:	000045d8 	.word	0x000045d8
    44bc:	00004ef8 	.word	0x00004ef8
    44c0:	00004bc8 	.word	0x00004bc8
    44c4:	00004ef8 	.word	0x00004ef8
    44c8:	00004c4c 	.word	0x00004c4c
    44cc:	00004ef8 	.word	0x00004ef8
    44d0:	00004ef8 	.word	0x00004ef8
    44d4:	00004cac 	.word	0x00004cac
    44d8:	e5dd024f 	ldrb	r0, [sp, #591]	; 0x24f
    44dc:	e3500000 	cmp	r0, #0
    44e0:	02800020 	addeq	r0, r0, #32
    44e4:	0a00000c 	beq	451c <_vfprintf_r+0x404>
    44e8:	eaffff9c 	b	4360 <_vfprintf_r+0x248>
    44ec:	e3855001 	orr	r5, r5, #1
    44f0:	eaffff9a 	b	4360 <_vfprintf_r+0x248>
    44f4:	e59a2000 	ldr	r2, [sl]
    44f8:	e28a0004 	add	r0, sl, #4
    44fc:	e3520000 	cmp	r2, #0
    4500:	a1a0a000 	movge	sl, r0
    4504:	aaffff95 	bge	4360 <_vfprintf_r+0x248>
    4508:	e2622000 	rsb	r2, r2, #0
    450c:	e1a0a000 	mov	sl, r0
    4510:	e3855004 	orr	r5, r5, #4
    4514:	eaffff91 	b	4360 <_vfprintf_r+0x248>
    4518:	e3a0002b 	mov	r0, #43	; 0x2b
    451c:	e5cd024f 	strb	r0, [sp, #591]	; 0x24f
    4520:	eaffff8e 	b	4360 <_vfprintf_r+0x248>
    4524:	e1a00003 	mov	r0, r3
    4528:	e4d08001 	ldrb	r8, [r0], #1
    452c:	e358002a 	cmp	r8, #42	; 0x2a
    4530:	11a00003 	movne	r0, r3
    4534:	13a01000 	movne	r1, #0
    4538:	1a00000a 	bne	4568 <_vfprintf_r+0x450>
    453c:	e59a1000 	ldr	r1, [sl]
    4540:	e28a3004 	add	r3, sl, #4
    4544:	e3510000 	cmp	r1, #0
    4548:	a1a0a003 	movge	sl, r3
    454c:	a1a03000 	movge	r3, r0
    4550:	aaffff82 	bge	4360 <_vfprintf_r+0x248>
    4554:	eaffff7e 	b	4354 <_vfprintf_r+0x23c>
    4558:	e3a0800a 	mov	r8, #10
    455c:	e021c198 	mla	r1, r8, r1, ip
    4560:	e5d08001 	ldrb	r8, [r0, #1]
    4564:	e1a00003 	mov	r0, r3
    4568:	e248c030 	sub	ip, r8, #48	; 0x30
    456c:	e35c0009 	cmp	ip, #9
    4570:	e2833001 	add	r3, r3, #1
    4574:	9afffff7 	bls	4558 <_vfprintf_r+0x440>
    4578:	e1811fc1 	orr	r1, r1, r1, asr #31
    457c:	eaffff78 	b	4364 <_vfprintf_r+0x24c>
    4580:	e3855080 	orr	r5, r5, #128	; 0x80
    4584:	eaffff75 	b	4360 <_vfprintf_r+0x248>
    4588:	e1a00003 	mov	r0, r3
    458c:	e3a02000 	mov	r2, #0
    4590:	e2488030 	sub	r8, r8, #48	; 0x30
    4594:	e3a0300a 	mov	r3, #10
    4598:	e0228293 	mla	r2, r3, r2, r8
    459c:	e4d08001 	ldrb	r8, [r0], #1
    45a0:	e248c030 	sub	ip, r8, #48	; 0x30
    45a4:	e35c0009 	cmp	ip, #9
    45a8:	e1a03000 	mov	r3, r0
    45ac:	9afffff7 	bls	4590 <_vfprintf_r+0x478>
    45b0:	eaffff6b 	b	4364 <_vfprintf_r+0x24c>
    45b4:	e3855008 	orr	r5, r5, #8
    45b8:	eaffff68 	b	4360 <_vfprintf_r+0x248>
    45bc:	e3855040 	orr	r5, r5, #64	; 0x40
    45c0:	eaffff66 	b	4360 <_vfprintf_r+0x248>
    45c4:	e5d30000 	ldrb	r0, [r3]
    45c8:	e350006c 	cmp	r0, #108	; 0x6c
    45cc:	02833001 	addeq	r3, r3, #1
    45d0:	13855010 	orrne	r5, r5, #16
    45d4:	1affff61 	bne	4360 <_vfprintf_r+0x248>
    45d8:	e3855020 	orr	r5, r5, #32
    45dc:	eaffff5f 	b	4360 <_vfprintf_r+0x248>
    45e0:	e58d3028 	str	r3, [sp, #40]	; 0x28
    45e4:	e59a3000 	ldr	r3, [sl]
    45e8:	e28a0004 	add	r0, sl, #4
    45ec:	e3a0b000 	mov	fp, #0
    45f0:	e58d202c 	str	r2, [sp, #44]	; 0x2c
    45f4:	e58d0020 	str	r0, [sp, #32]
    45f8:	e5cd3204 	strb	r3, [sp, #516]	; 0x204
    45fc:	e5cdb24f 	strb	fp, [sp, #591]	; 0x24f
    4600:	ea000244 	b	4f18 <_vfprintf_r+0xe00>
    4604:	e58d3028 	str	r3, [sp, #40]	; 0x28
    4608:	e58d202c 	str	r2, [sp, #44]	; 0x2c
    460c:	e58d101c 	str	r1, [sp, #28]
    4610:	e3855010 	orr	r5, r5, #16
    4614:	ea000002 	b	4624 <_vfprintf_r+0x50c>
    4618:	e58d3028 	str	r3, [sp, #40]	; 0x28
    461c:	e58d202c 	str	r2, [sp, #44]	; 0x2c
    4620:	e58d101c 	str	r1, [sp, #28]
    4624:	e3150020 	tst	r5, #32
    4628:	0a000005 	beq	4644 <_vfprintf_r+0x52c>
    462c:	e28aa007 	add	sl, sl, #7
    4630:	e3caa007 	bic	sl, sl, #7
    4634:	e28a2008 	add	r2, sl, #8
    4638:	e58d2020 	str	r2, [sp, #32]
    463c:	e89a1800 	ldm	sl, {fp, ip}
    4640:	ea00000a 	b	4670 <_vfprintf_r+0x558>
    4644:	e3150010 	tst	r5, #16
    4648:	e28a3004 	add	r3, sl, #4
    464c:	158d3020 	strne	r3, [sp, #32]
    4650:	159ab000 	ldrne	fp, [sl]
    4654:	1a000004 	bne	466c <_vfprintf_r+0x554>
    4658:	e59ab000 	ldr	fp, [sl]
    465c:	e3150040 	tst	r5, #64	; 0x40
    4660:	11a0b80b 	lslne	fp, fp, #16
    4664:	e58d3020 	str	r3, [sp, #32]
    4668:	11a0b84b 	asrne	fp, fp, #16
    466c:	e1a0cfcb 	asr	ip, fp, #31
    4670:	e35b0000 	cmp	fp, #0
    4674:	e2dc3000 	sbcs	r3, ip, #0
    4678:	aa0001b6 	bge	4d58 <_vfprintf_r+0xc40>
    467c:	e3a0302d 	mov	r3, #45	; 0x2d
    4680:	e27bb000 	rsbs	fp, fp, #0
    4684:	e2ecc000 	rsc	ip, ip, #0
    4688:	e5cd324f 	strb	r3, [sp, #591]	; 0x24f
    468c:	ea0001b1 	b	4d58 <_vfprintf_r+0xc40>
    4690:	e28aa007 	add	sl, sl, #7
    4694:	e3150008 	tst	r5, #8
    4698:	e3caa007 	bic	sl, sl, #7
    469c:	159ac000 	ldrne	ip, [sl]
    46a0:	e58d101c 	str	r1, [sp, #28]
    46a4:	059a1000 	ldreq	r1, [sl]
    46a8:	028a0008 	addeq	r0, sl, #8
    46ac:	128a9008 	addne	r9, sl, #8
    46b0:	058d1038 	streq	r1, [sp, #56]	; 0x38
    46b4:	158dc038 	strne	ip, [sp, #56]	; 0x38
    46b8:	058d0020 	streq	r0, [sp, #32]
    46bc:	158d9020 	strne	r9, [sp, #32]
    46c0:	e58d3028 	str	r3, [sp, #40]	; 0x28
    46c4:	e58d202c 	str	r2, [sp, #44]	; 0x2c
    46c8:	e58d8034 	str	r8, [sp, #52]	; 0x34
    46cc:	e59aa004 	ldr	sl, [sl, #4]
    46d0:	e58da03c 	str	sl, [sp, #60]	; 0x3c
    46d4:	e28d0038 	add	r0, sp, #56	; 0x38
    46d8:	e8900003 	ldm	r0, {r0, r1}
    46dc:	eb001213 	bl	8f30 <__fpclassifyd>
    46e0:	e3500001 	cmp	r0, #1
    46e4:	1a00000f 	bne	4728 <_vfprintf_r+0x610>
    46e8:	e3a03000 	mov	r3, #0
    46ec:	e28d0038 	add	r0, sp, #56	; 0x38
    46f0:	e8900003 	ldm	r0, {r0, r1}
    46f4:	e3a02000 	mov	r2, #0
    46f8:	eb001f2a 	bl	c3a8 <__aeabi_dcmplt>
    46fc:	e3500000 	cmp	r0, #0
    4700:	13a0302d 	movne	r3, #45	; 0x2d
    4704:	15cd324f 	strbne	r3, [sp, #591]	; 0x24f
    4708:	e59f3f40 	ldr	r3, [pc, #3904]	; 5650 <_vfprintf_r+0x1538>
    470c:	e3580047 	cmp	r8, #71	; 0x47
    4710:	e59faf3c 	ldr	sl, [pc, #3900]	; 5654 <_vfprintf_r+0x153c>
    4714:	e3c55080 	bic	r5, r5, #128	; 0x80
    4718:	d1a0a003 	movle	sl, r3
    471c:	e3a09003 	mov	r9, #3
    4720:	e3a0b000 	mov	fp, #0
    4724:	ea000201 	b	4f30 <_vfprintf_r+0xe18>
    4728:	e28d0038 	add	r0, sp, #56	; 0x38
    472c:	e8900003 	ldm	r0, {r0, r1}
    4730:	eb0011fe 	bl	8f30 <__fpclassifyd>
    4734:	e250b000 	subs	fp, r0, #0
    4738:	1a000006 	bne	4758 <_vfprintf_r+0x640>
    473c:	e59f3f14 	ldr	r3, [pc, #3860]	; 5658 <_vfprintf_r+0x1540>
    4740:	e3580047 	cmp	r8, #71	; 0x47
    4744:	e59faf10 	ldr	sl, [pc, #3856]	; 565c <_vfprintf_r+0x1544>
    4748:	e3c55080 	bic	r5, r5, #128	; 0x80
    474c:	d1a0a003 	movle	sl, r3
    4750:	e3a09003 	mov	r9, #3
    4754:	ea0001f5 	b	4f30 <_vfprintf_r+0xe18>
    4758:	e59d201c 	ldr	r2, [sp, #28]
    475c:	e3720001 	cmn	r2, #1
    4760:	03a03006 	moveq	r3, #6
    4764:	058d301c 	streq	r3, [sp, #28]
    4768:	0a000005 	beq	4784 <_vfprintf_r+0x66c>
    476c:	e3580067 	cmp	r8, #103	; 0x67
    4770:	13580047 	cmpne	r8, #71	; 0x47
    4774:	1a000002 	bne	4784 <_vfprintf_r+0x66c>
    4778:	e3520000 	cmp	r2, #0
    477c:	03a02001 	moveq	r2, #1
    4780:	e58d201c 	str	r2, [sp, #28]
    4784:	e59d303c 	ldr	r3, [sp, #60]	; 0x3c
    4788:	e3530000 	cmp	r3, #0
    478c:	b3a0902d 	movlt	r9, #45	; 0x2d
    4790:	a3a0c000 	movge	ip, #0
    4794:	b283b102 	addlt	fp, r3, #-2147483648	; 0x80000000
    4798:	b58d9048 	strlt	r9, [sp, #72]	; 0x48
    479c:	a59db03c 	ldrge	fp, [sp, #60]	; 0x3c
    47a0:	a58dc048 	strge	ip, [sp, #72]	; 0x48
    47a4:	e3580066 	cmp	r8, #102	; 0x66
    47a8:	13580046 	cmpne	r8, #70	; 0x46
    47ac:	e3855c01 	orr	r5, r5, #256	; 0x100
    47b0:	13a01000 	movne	r1, #0
    47b4:	03a01001 	moveq	r1, #1
    47b8:	059d901c 	ldreq	r9, [sp, #28]
    47bc:	03a03003 	moveq	r3, #3
    47c0:	0a000005 	beq	47dc <_vfprintf_r+0x6c4>
    47c4:	e3580065 	cmp	r8, #101	; 0x65
    47c8:	13580045 	cmpne	r8, #69	; 0x45
    47cc:	059d001c 	ldreq	r0, [sp, #28]
    47d0:	02809001 	addeq	r9, r0, #1
    47d4:	159d901c 	ldrne	r9, [sp, #28]
    47d8:	e3a03002 	mov	r3, #2
    47dc:	e58d3000 	str	r3, [sp]
    47e0:	e28d3f92 	add	r3, sp, #584	; 0x248
    47e4:	e58d3008 	str	r3, [sp, #8]
    47e8:	e28d3f91 	add	r3, sp, #580	; 0x244
    47ec:	e58d300c 	str	r3, [sp, #12]
    47f0:	e28d3d09 	add	r3, sp, #576	; 0x240
    47f4:	e58d3010 	str	r3, [sp, #16]
    47f8:	e1a00007 	mov	r0, r7
    47fc:	e59d2038 	ldr	r2, [sp, #56]	; 0x38
    4800:	e1a0300b 	mov	r3, fp
    4804:	e58d1018 	str	r1, [sp, #24]
    4808:	e58d9004 	str	r9, [sp, #4]
    480c:	eb0005a6 	bl	5eac <_dtoa_r>
    4810:	e3580047 	cmp	r8, #71	; 0x47
    4814:	13580067 	cmpne	r8, #103	; 0x67
    4818:	e1a0a000 	mov	sl, r0
    481c:	e59d1018 	ldr	r1, [sp, #24]
    4820:	1a000001 	bne	482c <_vfprintf_r+0x714>
    4824:	e3150001 	tst	r5, #1
    4828:	0a000021 	beq	48b4 <_vfprintf_r+0x79c>
    482c:	e3510000 	cmp	r1, #0
    4830:	e08ac009 	add	ip, sl, r9
    4834:	0a00000e 	beq	4874 <_vfprintf_r+0x75c>
    4838:	e5da3000 	ldrb	r3, [sl]
    483c:	e3530030 	cmp	r3, #48	; 0x30
    4840:	1a000009 	bne	486c <_vfprintf_r+0x754>
    4844:	e59d0038 	ldr	r0, [sp, #56]	; 0x38
    4848:	e1a0100b 	mov	r1, fp
    484c:	e3a02000 	mov	r2, #0
    4850:	e3a03000 	mov	r3, #0
    4854:	e58dc018 	str	ip, [sp, #24]
    4858:	eb001ecc 	bl	c390 <__aeabi_dcmpeq>
    485c:	e3500000 	cmp	r0, #0
    4860:	02699001 	rsbeq	r9, r9, #1
    4864:	e59dc018 	ldr	ip, [sp, #24]
    4868:	058d9248 	streq	r9, [sp, #584]	; 0x248
    486c:	e59d3248 	ldr	r3, [sp, #584]	; 0x248
    4870:	e08cc003 	add	ip, ip, r3
    4874:	e59d0038 	ldr	r0, [sp, #56]	; 0x38
    4878:	e1a0100b 	mov	r1, fp
    487c:	e3a02000 	mov	r2, #0
    4880:	e3a03000 	mov	r3, #0
    4884:	e58dc018 	str	ip, [sp, #24]
    4888:	eb001ec0 	bl	c390 <__aeabi_dcmpeq>
    488c:	e59dc018 	ldr	ip, [sp, #24]
    4890:	e3500000 	cmp	r0, #0
    4894:	158dc240 	strne	ip, [sp, #576]	; 0x240
    4898:	ea000002 	b	48a8 <_vfprintf_r+0x790>
    489c:	e3a02030 	mov	r2, #48	; 0x30
    48a0:	e4c32001 	strb	r2, [r3], #1
    48a4:	e58d3240 	str	r3, [sp, #576]	; 0x240
    48a8:	e59d3240 	ldr	r3, [sp, #576]	; 0x240
    48ac:	e153000c 	cmp	r3, ip
    48b0:	3afffff9 	bcc	489c <_vfprintf_r+0x784>
    48b4:	e59d3240 	ldr	r3, [sp, #576]	; 0x240
    48b8:	e3580067 	cmp	r8, #103	; 0x67
    48bc:	13580047 	cmpne	r8, #71	; 0x47
    48c0:	e06a3003 	rsb	r3, sl, r3
    48c4:	e58d3024 	str	r3, [sp, #36]	; 0x24
    48c8:	e59d3248 	ldr	r3, [sp, #584]	; 0x248
    48cc:	1a000007 	bne	48f0 <_vfprintf_r+0x7d8>
    48d0:	e3730003 	cmn	r3, #3
    48d4:	e1a09003 	mov	r9, r3
    48d8:	ba000002 	blt	48e8 <_vfprintf_r+0x7d0>
    48dc:	e59d101c 	ldr	r1, [sp, #28]
    48e0:	e1530001 	cmp	r3, r1
    48e4:	da000053 	ble	4a38 <_vfprintf_r+0x920>
    48e8:	e2488002 	sub	r8, r8, #2
    48ec:	ea000001 	b	48f8 <_vfprintf_r+0x7e0>
    48f0:	e3580066 	cmp	r8, #102	; 0x66
    48f4:	0a00003b 	beq	49e8 <_vfprintf_r+0x8d0>
    48f8:	e59d9248 	ldr	r9, [sp, #584]	; 0x248
    48fc:	e2499001 	sub	r9, r9, #1
    4900:	e3590000 	cmp	r9, #0
    4904:	e58d9248 	str	r9, [sp, #584]	; 0x248
    4908:	b2699000 	rsblt	r9, r9, #0
    490c:	b3a0302d 	movlt	r3, #45	; 0x2d
    4910:	a3a0302b 	movge	r3, #43	; 0x2b
    4914:	e3590009 	cmp	r9, #9
    4918:	e5cd8238 	strb	r8, [sp, #568]	; 0x238
    491c:	e5cd3239 	strb	r3, [sp, #569]	; 0x239
    4920:	da00001d 	ble	499c <_vfprintf_r+0x884>
    4924:	e28db062 	add	fp, sp, #98	; 0x62
    4928:	e1a02008 	mov	r2, r8
    492c:	e1a00009 	mov	r0, r9
    4930:	e3a0100a 	mov	r1, #10
    4934:	e58d2018 	str	r2, [sp, #24]
    4938:	eb001c2a 	bl	b9e8 <__aeabi_idivmod>
    493c:	e2811030 	add	r1, r1, #48	; 0x30
    4940:	e1a00009 	mov	r0, r9
    4944:	e1a0800b 	mov	r8, fp
    4948:	e44b1001 	strb	r1, [fp], #-1
    494c:	e3a0100a 	mov	r1, #10
    4950:	eb001bda 	bl	b8c0 <__aeabi_idiv>
    4954:	e3500009 	cmp	r0, #9
    4958:	e1a09000 	mov	r9, r0
    495c:	e59d2018 	ldr	r2, [sp, #24]
    4960:	cafffff1 	bgt	492c <_vfprintf_r+0x814>
    4964:	e1a03008 	mov	r3, r8
    4968:	e2809030 	add	r9, r0, #48	; 0x30
    496c:	e1a08002 	mov	r8, r2
    4970:	e28d2f8e 	add	r2, sp, #568	; 0x238
    4974:	e5439001 	strb	r9, [r3, #-1]
    4978:	e2822002 	add	r2, r2, #2
    497c:	e2433001 	sub	r3, r3, #1
    4980:	ea000001 	b	498c <_vfprintf_r+0x874>
    4984:	e4d31001 	ldrb	r1, [r3], #1
    4988:	e4c21001 	strb	r1, [r2], #1
    498c:	e28d1063 	add	r1, sp, #99	; 0x63
    4990:	e1530001 	cmp	r3, r1
    4994:	3afffffa 	bcc	4984 <_vfprintf_r+0x86c>
    4998:	ea000004 	b	49b0 <_vfprintf_r+0x898>
    499c:	e3a03030 	mov	r3, #48	; 0x30
    49a0:	e0899003 	add	r9, r9, r3
    49a4:	e5cd323a 	strb	r3, [sp, #570]	; 0x23a
    49a8:	e5cd923b 	strb	r9, [sp, #571]	; 0x23b
    49ac:	e28d2f8f 	add	r2, sp, #572	; 0x23c
    49b0:	e59dc024 	ldr	ip, [sp, #36]	; 0x24
    49b4:	e28d3f8e 	add	r3, sp, #568	; 0x238
    49b8:	e0633002 	rsb	r3, r3, r2
    49bc:	e35c0001 	cmp	ip, #1
    49c0:	e58d304c 	str	r3, [sp, #76]	; 0x4c
    49c4:	e083900c 	add	r9, r3, ip
    49c8:	ca000002 	bgt	49d8 <_vfprintf_r+0x8c0>
    49cc:	e2153001 	ands	r3, r5, #1
    49d0:	058d301c 	streq	r3, [sp, #28]
    49d4:	0a00002d 	beq	4a90 <_vfprintf_r+0x978>
    49d8:	e3a00000 	mov	r0, #0
    49dc:	e2899001 	add	r9, r9, #1
    49e0:	e58d001c 	str	r0, [sp, #28]
    49e4:	ea000029 	b	4a90 <_vfprintf_r+0x978>
    49e8:	e2539000 	subs	r9, r3, #0
    49ec:	da000008 	ble	4a14 <_vfprintf_r+0x8fc>
    49f0:	e59d101c 	ldr	r1, [sp, #28]
    49f4:	e3510000 	cmp	r1, #0
    49f8:	1a000001 	bne	4a04 <_vfprintf_r+0x8ec>
    49fc:	e3150001 	tst	r5, #1
    4a00:	0a00001f 	beq	4a84 <_vfprintf_r+0x96c>
    4a04:	e59d201c 	ldr	r2, [sp, #28]
    4a08:	e2839001 	add	r9, r3, #1
    4a0c:	e0899002 	add	r9, r9, r2
    4a10:	ea00001b 	b	4a84 <_vfprintf_r+0x96c>
    4a14:	e59d301c 	ldr	r3, [sp, #28]
    4a18:	e3530000 	cmp	r3, #0
    4a1c:	1a000002 	bne	4a2c <_vfprintf_r+0x914>
    4a20:	e3150001 	tst	r5, #1
    4a24:	03a09001 	moveq	r9, #1
    4a28:	0a000015 	beq	4a84 <_vfprintf_r+0x96c>
    4a2c:	e59dc01c 	ldr	ip, [sp, #28]
    4a30:	e28c9002 	add	r9, ip, #2
    4a34:	ea000012 	b	4a84 <_vfprintf_r+0x96c>
    4a38:	e59d0024 	ldr	r0, [sp, #36]	; 0x24
    4a3c:	e1530000 	cmp	r3, r0
    4a40:	ba000005 	blt	4a5c <_vfprintf_r+0x944>
    4a44:	e3150001 	tst	r5, #1
    4a48:	13a01067 	movne	r1, #103	; 0x67
    4a4c:	12839001 	addne	r9, r3, #1
    4a50:	158d1034 	strne	r1, [sp, #52]	; 0x34
    4a54:	1a00000a 	bne	4a84 <_vfprintf_r+0x96c>
    4a58:	ea000007 	b	4a7c <_vfprintf_r+0x964>
    4a5c:	e3530000 	cmp	r3, #0
    4a60:	e59d2024 	ldr	r2, [sp, #36]	; 0x24
    4a64:	d2639002 	rsble	r9, r3, #2
    4a68:	c3a09001 	movgt	r9, #1
    4a6c:	e3a03067 	mov	r3, #103	; 0x67
    4a70:	e0899002 	add	r9, r9, r2
    4a74:	e58d3034 	str	r3, [sp, #52]	; 0x34
    4a78:	ea000001 	b	4a84 <_vfprintf_r+0x96c>
    4a7c:	e3a0c067 	mov	ip, #103	; 0x67
    4a80:	e58dc034 	str	ip, [sp, #52]	; 0x34
    4a84:	e59d0248 	ldr	r0, [sp, #584]	; 0x248
    4a88:	e59d8034 	ldr	r8, [sp, #52]	; 0x34
    4a8c:	e58d001c 	str	r0, [sp, #28]
    4a90:	e59d1048 	ldr	r1, [sp, #72]	; 0x48
    4a94:	e3510000 	cmp	r1, #0
    4a98:	13a0302d 	movne	r3, #45	; 0x2d
    4a9c:	15cd324f 	strbne	r3, [sp, #591]	; 0x24f
    4aa0:	13a0b000 	movne	fp, #0
    4aa4:	1a000122 	bne	4f34 <_vfprintf_r+0xe1c>
    4aa8:	ea00011e 	b	4f28 <_vfprintf_r+0xe10>
    4aac:	e3150020 	tst	r5, #32
    4ab0:	e58d3028 	str	r3, [sp, #40]	; 0x28
    4ab4:	e28a3004 	add	r3, sl, #4
    4ab8:	159d9030 	ldrne	r9, [sp, #48]	; 0x30
    4abc:	159a2000 	ldrne	r2, [sl]
    4ac0:	11a00009 	movne	r0, r9
    4ac4:	11a01fc0 	asrne	r1, r0, #31
    4ac8:	18820003 	stmne	r2, {r0, r1}
    4acc:	1a00000a 	bne	4afc <_vfprintf_r+0x9e4>
    4ad0:	e3150010 	tst	r5, #16
    4ad4:	159a2000 	ldrne	r2, [sl]
    4ad8:	159dc030 	ldrne	ip, [sp, #48]	; 0x30
    4adc:	1582c000 	strne	ip, [r2]
    4ae0:	1a000005 	bne	4afc <_vfprintf_r+0x9e4>
    4ae4:	e3150040 	tst	r5, #64	; 0x40
    4ae8:	e59a2000 	ldr	r2, [sl]
    4aec:	159d0030 	ldrne	r0, [sp, #48]	; 0x30
    4af0:	059d1030 	ldreq	r1, [sp, #48]	; 0x30
    4af4:	11c200b0 	strhne	r0, [r2]
    4af8:	05821000 	streq	r1, [r2]
    4afc:	e1a0a003 	mov	sl, r3
    4b00:	eafffde5 	b	429c <_vfprintf_r+0x184>
    4b04:	e58d3028 	str	r3, [sp, #40]	; 0x28
    4b08:	e58d202c 	str	r2, [sp, #44]	; 0x2c
    4b0c:	e58d101c 	str	r1, [sp, #28]
    4b10:	e3855010 	orr	r5, r5, #16
    4b14:	ea000002 	b	4b24 <_vfprintf_r+0xa0c>
    4b18:	e58d3028 	str	r3, [sp, #40]	; 0x28
    4b1c:	e58d202c 	str	r2, [sp, #44]	; 0x2c
    4b20:	e58d101c 	str	r1, [sp, #28]
    4b24:	e2153020 	ands	r3, r5, #32
    4b28:	0a000006 	beq	4b48 <_vfprintf_r+0xa30>
    4b2c:	e28aa007 	add	sl, sl, #7
    4b30:	e3caa007 	bic	sl, sl, #7
    4b34:	e28a2008 	add	r2, sl, #8
    4b38:	e58d2020 	str	r2, [sp, #32]
    4b3c:	e89a1800 	ldm	sl, {fp, ip}
    4b40:	e3a03000 	mov	r3, #0
    4b44:	ea000080 	b	4d4c <_vfprintf_r+0xc34>
    4b48:	e2151010 	ands	r1, r5, #16
    4b4c:	e28a2004 	add	r2, sl, #4
    4b50:	158d2020 	strne	r2, [sp, #32]
    4b54:	159ab000 	ldrne	fp, [sl]
    4b58:	1a000009 	bne	4b84 <_vfprintf_r+0xa6c>
    4b5c:	e2153040 	ands	r3, r5, #64	; 0x40
    4b60:	e59ab000 	ldr	fp, [sl]
    4b64:	058d2020 	streq	r2, [sp, #32]
    4b68:	0a000005 	beq	4b84 <_vfprintf_r+0xa6c>
    4b6c:	e1a0b80b 	lsl	fp, fp, #16
    4b70:	e1a0b82b 	lsr	fp, fp, #16
    4b74:	e58d2020 	str	r2, [sp, #32]
    4b78:	e3a0c000 	mov	ip, #0
    4b7c:	e1a03001 	mov	r3, r1
    4b80:	ea000071 	b	4d4c <_vfprintf_r+0xc34>
    4b84:	e3a0c000 	mov	ip, #0
    4b88:	ea00006f 	b	4d4c <_vfprintf_r+0xc34>
    4b8c:	e59ab000 	ldr	fp, [sl]
    4b90:	e58d3028 	str	r3, [sp, #40]	; 0x28
    4b94:	e59f9ac4 	ldr	r9, [pc, #2756]	; 5660 <_vfprintf_r+0x1548>
    4b98:	e28a3004 	add	r3, sl, #4
    4b9c:	e58d3020 	str	r3, [sp, #32]
    4ba0:	e3a08078 	mov	r8, #120	; 0x78
    4ba4:	e3a03030 	mov	r3, #48	; 0x30
    4ba8:	e58d202c 	str	r2, [sp, #44]	; 0x2c
    4bac:	e58d101c 	str	r1, [sp, #28]
    4bb0:	e3a0c000 	mov	ip, #0
    4bb4:	e3855002 	orr	r5, r5, #2
    4bb8:	e5cd324c 	strb	r3, [sp, #588]	; 0x24c
    4bbc:	e5cd824d 	strb	r8, [sp, #589]	; 0x24d
    4bc0:	e58d9050 	str	r9, [sp, #80]	; 0x50
    4bc4:	ea00005f 	b	4d48 <_vfprintf_r+0xc30>
    4bc8:	e3a0b000 	mov	fp, #0
    4bcc:	e5cdb24f 	strb	fp, [sp, #591]	; 0x24f
    4bd0:	e28a0004 	add	r0, sl, #4
    4bd4:	e151000b 	cmp	r1, fp
    4bd8:	e58d3028 	str	r3, [sp, #40]	; 0x28
    4bdc:	e58d202c 	str	r2, [sp, #44]	; 0x2c
    4be0:	e58d101c 	str	r1, [sp, #28]
    4be4:	e58d0020 	str	r0, [sp, #32]
    4be8:	e59aa000 	ldr	sl, [sl]
    4bec:	ba00000d 	blt	4c28 <_vfprintf_r+0xb10>
    4bf0:	e1a0100b 	mov	r1, fp
    4bf4:	e1a0000a 	mov	r0, sl
    4bf8:	e59d201c 	ldr	r2, [sp, #28]
    4bfc:	eb000dbc 	bl	82f4 <memchr>
    4c00:	e3500000 	cmp	r0, #0
    4c04:	059d901c 	ldreq	r9, [sp, #28]
    4c08:	01a0b000 	moveq	fp, r0
    4c0c:	058d001c 	streq	r0, [sp, #28]
    4c10:	0a0000c7 	beq	4f34 <_vfprintf_r+0xe1c>
    4c14:	e59d101c 	ldr	r1, [sp, #28]
    4c18:	e06a9000 	rsb	r9, sl, r0
    4c1c:	e1590001 	cmp	r9, r1
    4c20:	c59d901c 	ldrgt	r9, [sp, #28]
    4c24:	ea0000c1 	b	4f30 <_vfprintf_r+0xe18>
    4c28:	e1a0000a 	mov	r0, sl
    4c2c:	eb00112e 	bl	90ec <strlen>
    4c30:	e1a09000 	mov	r9, r0
    4c34:	ea0000bd 	b	4f30 <_vfprintf_r+0xe18>
    4c38:	e58d3028 	str	r3, [sp, #40]	; 0x28
    4c3c:	e58d202c 	str	r2, [sp, #44]	; 0x2c
    4c40:	e58d101c 	str	r1, [sp, #28]
    4c44:	e3855010 	orr	r5, r5, #16
    4c48:	ea000002 	b	4c58 <_vfprintf_r+0xb40>
    4c4c:	e58d3028 	str	r3, [sp, #40]	; 0x28
    4c50:	e58d202c 	str	r2, [sp, #44]	; 0x2c
    4c54:	e58d101c 	str	r1, [sp, #28]
    4c58:	e3150020 	tst	r5, #32
    4c5c:	0a000005 	beq	4c78 <_vfprintf_r+0xb60>
    4c60:	e28aa007 	add	sl, sl, #7
    4c64:	e3caa007 	bic	sl, sl, #7
    4c68:	e28a2008 	add	r2, sl, #8
    4c6c:	e58d2020 	str	r2, [sp, #32]
    4c70:	e89a1800 	ldm	sl, {fp, ip}
    4c74:	ea00000a 	b	4ca4 <_vfprintf_r+0xb8c>
    4c78:	e3150010 	tst	r5, #16
    4c7c:	e28a3004 	add	r3, sl, #4
    4c80:	158d3020 	strne	r3, [sp, #32]
    4c84:	159ab000 	ldrne	fp, [sl]
    4c88:	1a000004 	bne	4ca0 <_vfprintf_r+0xb88>
    4c8c:	e59ab000 	ldr	fp, [sl]
    4c90:	e3150040 	tst	r5, #64	; 0x40
    4c94:	11a0b80b 	lslne	fp, fp, #16
    4c98:	e58d3020 	str	r3, [sp, #32]
    4c9c:	11a0b82b 	lsrne	fp, fp, #16
    4ca0:	e3a0c000 	mov	ip, #0
    4ca4:	e3a03001 	mov	r3, #1
    4ca8:	ea000027 	b	4d4c <_vfprintf_r+0xc34>
    4cac:	e58d3028 	str	r3, [sp, #40]	; 0x28
    4cb0:	e59f39a8 	ldr	r3, [pc, #2472]	; 5660 <_vfprintf_r+0x1548>
    4cb4:	e58d202c 	str	r2, [sp, #44]	; 0x2c
    4cb8:	e58d101c 	str	r1, [sp, #28]
    4cbc:	e58d3050 	str	r3, [sp, #80]	; 0x50
    4cc0:	ea000004 	b	4cd8 <_vfprintf_r+0xbc0>
    4cc4:	e59f9998 	ldr	r9, [pc, #2456]	; 5664 <_vfprintf_r+0x154c>
    4cc8:	e58d3028 	str	r3, [sp, #40]	; 0x28
    4ccc:	e58d202c 	str	r2, [sp, #44]	; 0x2c
    4cd0:	e58d101c 	str	r1, [sp, #28]
    4cd4:	e58d9050 	str	r9, [sp, #80]	; 0x50
    4cd8:	e3150020 	tst	r5, #32
    4cdc:	0a000005 	beq	4cf8 <_vfprintf_r+0xbe0>
    4ce0:	e28aa007 	add	sl, sl, #7
    4ce4:	e3caa007 	bic	sl, sl, #7
    4ce8:	e28ac008 	add	ip, sl, #8
    4cec:	e58dc020 	str	ip, [sp, #32]
    4cf0:	e89a1800 	ldm	sl, {fp, ip}
    4cf4:	ea00000a 	b	4d24 <_vfprintf_r+0xc0c>
    4cf8:	e3150010 	tst	r5, #16
    4cfc:	e28a3004 	add	r3, sl, #4
    4d00:	158d3020 	strne	r3, [sp, #32]
    4d04:	159ab000 	ldrne	fp, [sl]
    4d08:	1a000004 	bne	4d20 <_vfprintf_r+0xc08>
    4d0c:	e59ab000 	ldr	fp, [sl]
    4d10:	e3150040 	tst	r5, #64	; 0x40
    4d14:	11a0b80b 	lslne	fp, fp, #16
    4d18:	e58d3020 	str	r3, [sp, #32]
    4d1c:	11a0b82b 	lsrne	fp, fp, #16
    4d20:	e3a0c000 	mov	ip, #0
    4d24:	e1a0000b 	mov	r0, fp
    4d28:	e190000c 	orrs	r0, r0, ip
    4d2c:	03a03000 	moveq	r3, #0
    4d30:	12053001 	andne	r3, r5, #1
    4d34:	e3530000 	cmp	r3, #0
    4d38:	13a03030 	movne	r3, #48	; 0x30
    4d3c:	15cd324c 	strbne	r3, [sp, #588]	; 0x24c
    4d40:	15cd824d 	strbne	r8, [sp, #589]	; 0x24d
    4d44:	13855002 	orrne	r5, r5, #2
    4d48:	e3a03002 	mov	r3, #2
    4d4c:	e3a02000 	mov	r2, #0
    4d50:	e5cd224f 	strb	r2, [sp, #591]	; 0x24f
    4d54:	ea000000 	b	4d5c <_vfprintf_r+0xc44>
    4d58:	e3a03001 	mov	r3, #1
    4d5c:	e59d201c 	ldr	r2, [sp, #28]
    4d60:	e1a0900b 	mov	r9, fp
    4d64:	e3520000 	cmp	r2, #0
    4d68:	a3c55080 	bicge	r5, r5, #128	; 0x80
    4d6c:	e59d101c 	ldr	r1, [sp, #28]
    4d70:	e199900c 	orrs	r9, r9, ip
    4d74:	03a02000 	moveq	r2, #0
    4d78:	13a02001 	movne	r2, #1
    4d7c:	e3510000 	cmp	r1, #0
    4d80:	13822001 	orrne	r2, r2, #1
    4d84:	e3520000 	cmp	r2, #0
    4d88:	0a00004b 	beq	4ebc <_vfprintf_r+0xda4>
    4d8c:	e3530001 	cmp	r3, #1
    4d90:	0a000016 	beq	4df0 <_vfprintf_r+0xcd8>
    4d94:	e3530002 	cmp	r3, #2
    4d98:	0a000038 	beq	4e80 <_vfprintf_r+0xd68>
    4d9c:	e28d2f81 	add	r2, sp, #516	; 0x204
    4da0:	e2823027 	add	r3, r2, #39	; 0x27
    4da4:	e1a001ab 	lsr	r0, fp, #3
    4da8:	e1801e8c 	orr	r1, r0, ip, lsl #29
    4dac:	e1a091ac 	lsr	r9, ip, #3
    4db0:	e20b2007 	and	r2, fp, #7
    4db4:	e1a0c009 	mov	ip, r9
    4db8:	e1a0b001 	mov	fp, r1
    4dbc:	e2822030 	add	r2, r2, #48	; 0x30
    4dc0:	e19b000c 	orrs	r0, fp, ip
    4dc4:	e1a0a003 	mov	sl, r3
    4dc8:	e5c32000 	strb	r2, [r3]
    4dcc:	e2433001 	sub	r3, r3, #1
    4dd0:	1afffff3 	bne	4da4 <_vfprintf_r+0xc8c>
    4dd4:	e3150001 	tst	r5, #1
    4dd8:	0a000040 	beq	4ee0 <_vfprintf_r+0xdc8>
    4ddc:	e3520030 	cmp	r2, #48	; 0x30
    4de0:	11a0a003 	movne	sl, r3
    4de4:	13a03030 	movne	r3, #48	; 0x30
    4de8:	15ca3000 	strbne	r3, [sl]
    4dec:	ea00003b 	b	4ee0 <_vfprintf_r+0xdc8>
    4df0:	e35c0000 	cmp	ip, #0
    4df4:	035b0009 	cmpeq	fp, #9
    4df8:	928bb030 	addls	fp, fp, #48	; 0x30
    4dfc:	928d2f81 	addls	r2, sp, #516	; 0x204
    4e00:	95cdb22b 	strbls	fp, [sp, #555]	; 0x22b
    4e04:	9282a027 	addls	sl, r2, #39	; 0x27
    4e08:	9a000034 	bls	4ee0 <_vfprintf_r+0xdc8>
    4e0c:	e1a0200b 	mov	r2, fp
    4e10:	e28d3f81 	add	r3, sp, #516	; 0x204
    4e14:	e58d8034 	str	r8, [sp, #52]	; 0x34
    4e18:	e1a0b004 	mov	fp, r4
    4e1c:	e1a08005 	mov	r8, r5
    4e20:	e2839027 	add	r9, r3, #39	; 0x27
    4e24:	e1a04002 	mov	r4, r2
    4e28:	e1a0500c 	mov	r5, ip
    4e2c:	e1a00004 	mov	r0, r4
    4e30:	e1a01005 	mov	r1, r5
    4e34:	e3a0200a 	mov	r2, #10
    4e38:	e3a03000 	mov	r3, #0
    4e3c:	eb001d88 	bl	c464 <__aeabi_uldivmod>
    4e40:	e2822030 	add	r2, r2, #48	; 0x30
    4e44:	e1a00004 	mov	r0, r4
    4e48:	e1a01005 	mov	r1, r5
    4e4c:	e1a0a009 	mov	sl, r9
    4e50:	e3a03000 	mov	r3, #0
    4e54:	e4492001 	strb	r2, [r9], #-1
    4e58:	e3a0200a 	mov	r2, #10
    4e5c:	eb001d80 	bl	c464 <__aeabi_uldivmod>
    4e60:	e1a04000 	mov	r4, r0
    4e64:	e1a05001 	mov	r5, r1
    4e68:	e194c005 	orrs	ip, r4, r5
    4e6c:	1affffee 	bne	4e2c <_vfprintf_r+0xd14>
    4e70:	e1a05008 	mov	r5, r8
    4e74:	e1a0400b 	mov	r4, fp
    4e78:	e59d8034 	ldr	r8, [sp, #52]	; 0x34
    4e7c:	ea000017 	b	4ee0 <_vfprintf_r+0xdc8>
    4e80:	e28d0f81 	add	r0, sp, #516	; 0x204
    4e84:	e2802027 	add	r2, r0, #39	; 0x27
    4e88:	e59d9050 	ldr	r9, [sp, #80]	; 0x50
    4e8c:	e20b300f 	and	r3, fp, #15
    4e90:	e7d93003 	ldrb	r3, [r9, r3]
    4e94:	e1a0022b 	lsr	r0, fp, #4
    4e98:	e1801e0c 	orr	r1, r0, ip, lsl #28
    4e9c:	e1a0a002 	mov	sl, r2
    4ea0:	e4423001 	strb	r3, [r2], #-1
    4ea4:	e1a0322c 	lsr	r3, ip, #4
    4ea8:	e1a0b001 	mov	fp, r1
    4eac:	e1a0c003 	mov	ip, r3
    4eb0:	e19b900c 	orrs	r9, fp, ip
    4eb4:	1afffff3 	bne	4e88 <_vfprintf_r+0xd70>
    4eb8:	ea000008 	b	4ee0 <_vfprintf_r+0xdc8>
    4ebc:	e3530000 	cmp	r3, #0
    4ec0:	1a000005 	bne	4edc <_vfprintf_r+0xdc4>
    4ec4:	e3150001 	tst	r5, #1
    4ec8:	12833030 	addne	r3, r3, #48	; 0x30
    4ecc:	128dcf81 	addne	ip, sp, #516	; 0x204
    4ed0:	15cd322b 	strbne	r3, [sp, #555]	; 0x22b
    4ed4:	128ca027 	addne	sl, ip, #39	; 0x27
    4ed8:	1a000000 	bne	4ee0 <_vfprintf_r+0xdc8>
    4edc:	e28daf8b 	add	sl, sp, #556	; 0x22c
    4ee0:	e28d9f8b 	add	r9, sp, #556	; 0x22c
    4ee4:	e3a02000 	mov	r2, #0
    4ee8:	e59db01c 	ldr	fp, [sp, #28]
    4eec:	e06a9009 	rsb	r9, sl, r9
    4ef0:	e58d201c 	str	r2, [sp, #28]
    4ef4:	ea00000e 	b	4f34 <_vfprintf_r+0xe1c>
    4ef8:	e3580000 	cmp	r8, #0
    4efc:	e58d3028 	str	r3, [sp, #40]	; 0x28
    4f00:	e58d202c 	str	r2, [sp, #44]	; 0x2c
    4f04:	0a00031e 	beq	5b84 <_vfprintf_r+0x1a6c>
    4f08:	e3a0b000 	mov	fp, #0
    4f0c:	e5cd8204 	strb	r8, [sp, #516]	; 0x204
    4f10:	e5cdb24f 	strb	fp, [sp, #591]	; 0x24f
    4f14:	e58da020 	str	sl, [sp, #32]
    4f18:	e3a09001 	mov	r9, #1
    4f1c:	e58db01c 	str	fp, [sp, #28]
    4f20:	e28daf81 	add	sl, sp, #516	; 0x204
    4f24:	ea000002 	b	4f34 <_vfprintf_r+0xe1c>
    4f28:	e59db048 	ldr	fp, [sp, #72]	; 0x48
    4f2c:	ea000000 	b	4f34 <_vfprintf_r+0xe1c>
    4f30:	e58db01c 	str	fp, [sp, #28]
    4f34:	e5dd324f 	ldrb	r3, [sp, #591]	; 0x24f
    4f38:	e159000b 	cmp	r9, fp
    4f3c:	a1a0c009 	movge	ip, r9
    4f40:	b1a0c00b 	movlt	ip, fp
    4f44:	e3530000 	cmp	r3, #0
    4f48:	e58dc034 	str	ip, [sp, #52]	; 0x34
    4f4c:	128cc001 	addne	ip, ip, #1
    4f50:	158dc034 	strne	ip, [sp, #52]	; 0x34
    4f54:	e2150002 	ands	r0, r5, #2
    4f58:	159d1034 	ldrne	r1, [sp, #52]	; 0x34
    4f5c:	12811002 	addne	r1, r1, #2
    4f60:	158d1034 	strne	r1, [sp, #52]	; 0x34
    4f64:	e2152084 	ands	r2, r5, #132	; 0x84
    4f68:	e58d0048 	str	r0, [sp, #72]	; 0x48
    4f6c:	e58d2054 	str	r2, [sp, #84]	; 0x54
    4f70:	1a000039 	bne	505c <_vfprintf_r+0xf44>
    4f74:	e59dc02c 	ldr	ip, [sp, #44]	; 0x2c
    4f78:	e59d0034 	ldr	r0, [sp, #52]	; 0x34
    4f7c:	e060300c 	rsb	r3, r0, ip
    4f80:	e3530000 	cmp	r3, #0
    4f84:	ca000015 	bgt	4fe0 <_vfprintf_r+0xec8>
    4f88:	ea000033 	b	505c <_vfprintf_r+0xf44>
    4f8c:	e5832000 	str	r2, [r3]
    4f90:	e3a02010 	mov	r2, #16
    4f94:	e5832004 	str	r2, [r3, #4]
    4f98:	e59d2234 	ldr	r2, [sp, #564]	; 0x234
    4f9c:	e2822010 	add	r2, r2, #16
    4fa0:	e58d2234 	str	r2, [sp, #564]	; 0x234
    4fa4:	e59d2230 	ldr	r2, [sp, #560]	; 0x230
    4fa8:	e2822001 	add	r2, r2, #1
    4fac:	e3520007 	cmp	r2, #7
    4fb0:	e58d2230 	str	r2, [sp, #560]	; 0x230
    4fb4:	d2833008 	addle	r3, r3, #8
    4fb8:	da000006 	ble	4fd8 <_vfprintf_r+0xec0>
    4fbc:	e1a00007 	mov	r0, r7
    4fc0:	e1a01006 	mov	r1, r6
    4fc4:	e28d2f8b 	add	r2, sp, #556	; 0x22c
    4fc8:	eb00104e 	bl	9108 <__sprint_r>
    4fcc:	e3500000 	cmp	r0, #0
    4fd0:	1a0002f1 	bne	5b9c <_vfprintf_r+0x1a84>
    4fd4:	e28d3f71 	add	r3, sp, #452	; 0x1c4
    4fd8:	e2455010 	sub	r5, r5, #16
    4fdc:	ea000004 	b	4ff4 <_vfprintf_r+0xedc>
    4fe0:	e1a02005 	mov	r2, r5
    4fe4:	e1a05003 	mov	r5, r3
    4fe8:	e1a03004 	mov	r3, r4
    4fec:	e1a04008 	mov	r4, r8
    4ff0:	e1a08002 	mov	r8, r2
    4ff4:	e3550010 	cmp	r5, #16
    4ff8:	e59f2670 	ldr	r2, [pc, #1648]	; 5670 <_vfprintf_r+0x1558>
    4ffc:	caffffe2 	bgt	4f8c <_vfprintf_r+0xe74>
    5000:	e1a01008 	mov	r1, r8
    5004:	e1a08004 	mov	r8, r4
    5008:	e1a04003 	mov	r4, r3
    500c:	e5842000 	str	r2, [r4]
    5010:	e59d2234 	ldr	r2, [sp, #564]	; 0x234
    5014:	e1a03005 	mov	r3, r5
    5018:	e5843004 	str	r3, [r4, #4]
    501c:	e0823003 	add	r3, r2, r3
    5020:	e58d3234 	str	r3, [sp, #564]	; 0x234
    5024:	e59d3230 	ldr	r3, [sp, #560]	; 0x230
    5028:	e2833001 	add	r3, r3, #1
    502c:	e3530007 	cmp	r3, #7
    5030:	e1a05001 	mov	r5, r1
    5034:	e58d3230 	str	r3, [sp, #560]	; 0x230
    5038:	d2844008 	addle	r4, r4, #8
    503c:	da000006 	ble	505c <_vfprintf_r+0xf44>
    5040:	e1a00007 	mov	r0, r7
    5044:	e1a01006 	mov	r1, r6
    5048:	e28d2f8b 	add	r2, sp, #556	; 0x22c
    504c:	eb00102d 	bl	9108 <__sprint_r>
    5050:	e3500000 	cmp	r0, #0
    5054:	1a0002d0 	bne	5b9c <_vfprintf_r+0x1a84>
    5058:	e28d4f71 	add	r4, sp, #452	; 0x1c4
    505c:	e5dd324f 	ldrb	r3, [sp, #591]	; 0x24f
    5060:	e3530000 	cmp	r3, #0
    5064:	0a000014 	beq	50bc <_vfprintf_r+0xfa4>
    5068:	e28d3f93 	add	r3, sp, #588	; 0x24c
    506c:	e2833003 	add	r3, r3, #3
    5070:	e5843000 	str	r3, [r4]
    5074:	e3a03001 	mov	r3, #1
    5078:	e5843004 	str	r3, [r4, #4]
    507c:	e59d3234 	ldr	r3, [sp, #564]	; 0x234
    5080:	e2833001 	add	r3, r3, #1
    5084:	e58d3234 	str	r3, [sp, #564]	; 0x234
    5088:	e59d3230 	ldr	r3, [sp, #560]	; 0x230
    508c:	e2833001 	add	r3, r3, #1
    5090:	e3530007 	cmp	r3, #7
    5094:	e58d3230 	str	r3, [sp, #560]	; 0x230
    5098:	d2844008 	addle	r4, r4, #8
    509c:	da000006 	ble	50bc <_vfprintf_r+0xfa4>
    50a0:	e1a00007 	mov	r0, r7
    50a4:	e1a01006 	mov	r1, r6
    50a8:	e28d2f8b 	add	r2, sp, #556	; 0x22c
    50ac:	eb001015 	bl	9108 <__sprint_r>
    50b0:	e3500000 	cmp	r0, #0
    50b4:	1a0002b8 	bne	5b9c <_vfprintf_r+0x1a84>
    50b8:	e28d4f71 	add	r4, sp, #452	; 0x1c4
    50bc:	e59d1048 	ldr	r1, [sp, #72]	; 0x48
    50c0:	e3510000 	cmp	r1, #0
    50c4:	0a000013 	beq	5118 <_vfprintf_r+0x1000>
    50c8:	e28d3f93 	add	r3, sp, #588	; 0x24c
    50cc:	e5843000 	str	r3, [r4]
    50d0:	e3a03002 	mov	r3, #2
    50d4:	e5843004 	str	r3, [r4, #4]
    50d8:	e59d3234 	ldr	r3, [sp, #564]	; 0x234
    50dc:	e2833002 	add	r3, r3, #2
    50e0:	e58d3234 	str	r3, [sp, #564]	; 0x234
    50e4:	e59d3230 	ldr	r3, [sp, #560]	; 0x230
    50e8:	e2833001 	add	r3, r3, #1
    50ec:	e3530007 	cmp	r3, #7
    50f0:	e58d3230 	str	r3, [sp, #560]	; 0x230
    50f4:	d2844008 	addle	r4, r4, #8
    50f8:	da000006 	ble	5118 <_vfprintf_r+0x1000>
    50fc:	e1a00007 	mov	r0, r7
    5100:	e1a01006 	mov	r1, r6
    5104:	e28d2f8b 	add	r2, sp, #556	; 0x22c
    5108:	eb000ffe 	bl	9108 <__sprint_r>
    510c:	e3500000 	cmp	r0, #0
    5110:	1a0002a1 	bne	5b9c <_vfprintf_r+0x1a84>
    5114:	e28d4f71 	add	r4, sp, #452	; 0x1c4
    5118:	e59d2054 	ldr	r2, [sp, #84]	; 0x54
    511c:	e3520080 	cmp	r2, #128	; 0x80
    5120:	1a000039 	bne	520c <_vfprintf_r+0x10f4>
    5124:	e59dc02c 	ldr	ip, [sp, #44]	; 0x2c
    5128:	e59d0034 	ldr	r0, [sp, #52]	; 0x34
    512c:	e060300c 	rsb	r3, r0, ip
    5130:	e3530000 	cmp	r3, #0
    5134:	ca000015 	bgt	5190 <_vfprintf_r+0x1078>
    5138:	ea000033 	b	520c <_vfprintf_r+0x10f4>
    513c:	e5832000 	str	r2, [r3]
    5140:	e3a02010 	mov	r2, #16
    5144:	e5832004 	str	r2, [r3, #4]
    5148:	e59d2234 	ldr	r2, [sp, #564]	; 0x234
    514c:	e2822010 	add	r2, r2, #16
    5150:	e58d2234 	str	r2, [sp, #564]	; 0x234
    5154:	e59d2230 	ldr	r2, [sp, #560]	; 0x230
    5158:	e2822001 	add	r2, r2, #1
    515c:	e3520007 	cmp	r2, #7
    5160:	e58d2230 	str	r2, [sp, #560]	; 0x230
    5164:	d2833008 	addle	r3, r3, #8
    5168:	da000006 	ble	5188 <_vfprintf_r+0x1070>
    516c:	e1a00007 	mov	r0, r7
    5170:	e1a01006 	mov	r1, r6
    5174:	e28d2f8b 	add	r2, sp, #556	; 0x22c
    5178:	eb000fe2 	bl	9108 <__sprint_r>
    517c:	e3500000 	cmp	r0, #0
    5180:	1a000285 	bne	5b9c <_vfprintf_r+0x1a84>
    5184:	e28d3f71 	add	r3, sp, #452	; 0x1c4
    5188:	e2455010 	sub	r5, r5, #16
    518c:	ea000004 	b	51a4 <_vfprintf_r+0x108c>
    5190:	e1a02005 	mov	r2, r5
    5194:	e1a05003 	mov	r5, r3
    5198:	e1a03004 	mov	r3, r4
    519c:	e1a04008 	mov	r4, r8
    51a0:	e1a08002 	mov	r8, r2
    51a4:	e3550010 	cmp	r5, #16
    51a8:	e59f24bc 	ldr	r2, [pc, #1212]	; 566c <_vfprintf_r+0x1554>
    51ac:	caffffe2 	bgt	513c <_vfprintf_r+0x1024>
    51b0:	e1a01008 	mov	r1, r8
    51b4:	e1a08004 	mov	r8, r4
    51b8:	e1a04003 	mov	r4, r3
    51bc:	e5842000 	str	r2, [r4]
    51c0:	e59d2234 	ldr	r2, [sp, #564]	; 0x234
    51c4:	e1a03005 	mov	r3, r5
    51c8:	e5843004 	str	r3, [r4, #4]
    51cc:	e0823003 	add	r3, r2, r3
    51d0:	e58d3234 	str	r3, [sp, #564]	; 0x234
    51d4:	e59d3230 	ldr	r3, [sp, #560]	; 0x230
    51d8:	e2833001 	add	r3, r3, #1
    51dc:	e3530007 	cmp	r3, #7
    51e0:	e1a05001 	mov	r5, r1
    51e4:	e58d3230 	str	r3, [sp, #560]	; 0x230
    51e8:	d2844008 	addle	r4, r4, #8
    51ec:	da000006 	ble	520c <_vfprintf_r+0x10f4>
    51f0:	e1a00007 	mov	r0, r7
    51f4:	e1a01006 	mov	r1, r6
    51f8:	e28d2f8b 	add	r2, sp, #556	; 0x22c
    51fc:	eb000fc1 	bl	9108 <__sprint_r>
    5200:	e3500000 	cmp	r0, #0
    5204:	1a000264 	bne	5b9c <_vfprintf_r+0x1a84>
    5208:	e28d4f71 	add	r4, sp, #452	; 0x1c4
    520c:	e069b00b 	rsb	fp, r9, fp
    5210:	e35b0000 	cmp	fp, #0
    5214:	ca000014 	bgt	526c <_vfprintf_r+0x1154>
    5218:	ea000028 	b	52c0 <_vfprintf_r+0x11a8>
    521c:	e5843000 	str	r3, [r4]
    5220:	e3a03010 	mov	r3, #16
    5224:	e5843004 	str	r3, [r4, #4]
    5228:	e59d3234 	ldr	r3, [sp, #564]	; 0x234
    522c:	e2833010 	add	r3, r3, #16
    5230:	e58d3234 	str	r3, [sp, #564]	; 0x234
    5234:	e59d3230 	ldr	r3, [sp, #560]	; 0x230
    5238:	e2833001 	add	r3, r3, #1
    523c:	e3530007 	cmp	r3, #7
    5240:	e58d3230 	str	r3, [sp, #560]	; 0x230
    5244:	d2844008 	addle	r4, r4, #8
    5248:	da000006 	ble	5268 <_vfprintf_r+0x1150>
    524c:	e1a00007 	mov	r0, r7
    5250:	e1a01006 	mov	r1, r6
    5254:	e28d2f8b 	add	r2, sp, #556	; 0x22c
    5258:	eb000faa 	bl	9108 <__sprint_r>
    525c:	e3500000 	cmp	r0, #0
    5260:	1a00024d 	bne	5b9c <_vfprintf_r+0x1a84>
    5264:	e28d4f71 	add	r4, sp, #452	; 0x1c4
    5268:	e24bb010 	sub	fp, fp, #16
    526c:	e35b0010 	cmp	fp, #16
    5270:	e59f33f4 	ldr	r3, [pc, #1012]	; 566c <_vfprintf_r+0x1554>
    5274:	caffffe8 	bgt	521c <_vfprintf_r+0x1104>
    5278:	e5843000 	str	r3, [r4]
    527c:	e59d3234 	ldr	r3, [sp, #564]	; 0x234
    5280:	e584b004 	str	fp, [r4, #4]
    5284:	e083b00b 	add	fp, r3, fp
    5288:	e59d3230 	ldr	r3, [sp, #560]	; 0x230
    528c:	e2833001 	add	r3, r3, #1
    5290:	e3530007 	cmp	r3, #7
    5294:	e58db234 	str	fp, [sp, #564]	; 0x234
    5298:	e58d3230 	str	r3, [sp, #560]	; 0x230
    529c:	d2844008 	addle	r4, r4, #8
    52a0:	da000006 	ble	52c0 <_vfprintf_r+0x11a8>
    52a4:	e1a00007 	mov	r0, r7
    52a8:	e1a01006 	mov	r1, r6
    52ac:	e28d2f8b 	add	r2, sp, #556	; 0x22c
    52b0:	eb000f94 	bl	9108 <__sprint_r>
    52b4:	e3500000 	cmp	r0, #0
    52b8:	1a000237 	bne	5b9c <_vfprintf_r+0x1a84>
    52bc:	e28d4f71 	add	r4, sp, #452	; 0x1c4
    52c0:	e3150c01 	tst	r5, #256	; 0x100
    52c4:	1a000005 	bne	52e0 <_vfprintf_r+0x11c8>
    52c8:	e59d3234 	ldr	r3, [sp, #564]	; 0x234
    52cc:	e5849004 	str	r9, [r4, #4]
    52d0:	e0839009 	add	r9, r3, r9
    52d4:	e584a000 	str	sl, [r4]
    52d8:	e58d9234 	str	r9, [sp, #564]	; 0x234
    52dc:	ea0001d8 	b	5a44 <_vfprintf_r+0x192c>
    52e0:	e3580065 	cmp	r8, #101	; 0x65
    52e4:	da000166 	ble	5884 <_vfprintf_r+0x176c>
    52e8:	e28d0038 	add	r0, sp, #56	; 0x38
    52ec:	e8900003 	ldm	r0, {r0, r1}
    52f0:	e3a02000 	mov	r2, #0
    52f4:	e3a03000 	mov	r3, #0
    52f8:	eb001c24 	bl	c390 <__aeabi_dcmpeq>
    52fc:	e3500000 	cmp	r0, #0
    5300:	0a00004b 	beq	5434 <_vfprintf_r+0x131c>
    5304:	e59f335c 	ldr	r3, [pc, #860]	; 5668 <_vfprintf_r+0x1550>
    5308:	e5843000 	str	r3, [r4]
    530c:	e3a03001 	mov	r3, #1
    5310:	e5843004 	str	r3, [r4, #4]
    5314:	e59d3234 	ldr	r3, [sp, #564]	; 0x234
    5318:	e2833001 	add	r3, r3, #1
    531c:	e58d3234 	str	r3, [sp, #564]	; 0x234
    5320:	e59d3230 	ldr	r3, [sp, #560]	; 0x230
    5324:	e2833001 	add	r3, r3, #1
    5328:	e3530007 	cmp	r3, #7
    532c:	e58d3230 	str	r3, [sp, #560]	; 0x230
    5330:	d2844008 	addle	r4, r4, #8
    5334:	da000006 	ble	5354 <_vfprintf_r+0x123c>
    5338:	e1a00007 	mov	r0, r7
    533c:	e1a01006 	mov	r1, r6
    5340:	e28d2f8b 	add	r2, sp, #556	; 0x22c
    5344:	eb000f6f 	bl	9108 <__sprint_r>
    5348:	e3500000 	cmp	r0, #0
    534c:	1a000212 	bne	5b9c <_vfprintf_r+0x1a84>
    5350:	e28d4f71 	add	r4, sp, #452	; 0x1c4
    5354:	e59d3248 	ldr	r3, [sp, #584]	; 0x248
    5358:	e59d1024 	ldr	r1, [sp, #36]	; 0x24
    535c:	e1530001 	cmp	r3, r1
    5360:	ba000001 	blt	536c <_vfprintf_r+0x1254>
    5364:	e3150001 	tst	r5, #1
    5368:	0a0001c2 	beq	5a78 <_vfprintf_r+0x1960>
    536c:	e59d3040 	ldr	r3, [sp, #64]	; 0x40
    5370:	e59d9040 	ldr	r9, [sp, #64]	; 0x40
    5374:	e5843004 	str	r3, [r4, #4]
    5378:	e59d3234 	ldr	r3, [sp, #564]	; 0x234
    537c:	e59d2044 	ldr	r2, [sp, #68]	; 0x44
    5380:	e0833009 	add	r3, r3, r9
    5384:	e5842000 	str	r2, [r4]
    5388:	e58d3234 	str	r3, [sp, #564]	; 0x234
    538c:	e59d3230 	ldr	r3, [sp, #560]	; 0x230
    5390:	e2833001 	add	r3, r3, #1
    5394:	e3530007 	cmp	r3, #7
    5398:	e58d3230 	str	r3, [sp, #560]	; 0x230
    539c:	d2844008 	addle	r4, r4, #8
    53a0:	da000006 	ble	53c0 <_vfprintf_r+0x12a8>
    53a4:	e1a00007 	mov	r0, r7
    53a8:	e1a01006 	mov	r1, r6
    53ac:	e28d2f8b 	add	r2, sp, #556	; 0x22c
    53b0:	eb000f54 	bl	9108 <__sprint_r>
    53b4:	e3500000 	cmp	r0, #0
    53b8:	1a0001f7 	bne	5b9c <_vfprintf_r+0x1a84>
    53bc:	e28d4f71 	add	r4, sp, #452	; 0x1c4
    53c0:	e59dc024 	ldr	ip, [sp, #36]	; 0x24
    53c4:	e24c8001 	sub	r8, ip, #1
    53c8:	e3580000 	cmp	r8, #0
    53cc:	ca000014 	bgt	5424 <_vfprintf_r+0x130c>
    53d0:	ea0001a8 	b	5a78 <_vfprintf_r+0x1960>
    53d4:	e5843000 	str	r3, [r4]
    53d8:	e3a03010 	mov	r3, #16
    53dc:	e5843004 	str	r3, [r4, #4]
    53e0:	e59d3234 	ldr	r3, [sp, #564]	; 0x234
    53e4:	e2833010 	add	r3, r3, #16
    53e8:	e58d3234 	str	r3, [sp, #564]	; 0x234
    53ec:	e59d3230 	ldr	r3, [sp, #560]	; 0x230
    53f0:	e2833001 	add	r3, r3, #1
    53f4:	e3530007 	cmp	r3, #7
    53f8:	e58d3230 	str	r3, [sp, #560]	; 0x230
    53fc:	d2844008 	addle	r4, r4, #8
    5400:	da000006 	ble	5420 <_vfprintf_r+0x1308>
    5404:	e1a00007 	mov	r0, r7
    5408:	e1a01006 	mov	r1, r6
    540c:	e28d2f8b 	add	r2, sp, #556	; 0x22c
    5410:	eb000f3c 	bl	9108 <__sprint_r>
    5414:	e3500000 	cmp	r0, #0
    5418:	1a0001df 	bne	5b9c <_vfprintf_r+0x1a84>
    541c:	e28d4f71 	add	r4, sp, #452	; 0x1c4
    5420:	e2488010 	sub	r8, r8, #16
    5424:	e3580010 	cmp	r8, #16
    5428:	e59f323c 	ldr	r3, [pc, #572]	; 566c <_vfprintf_r+0x1554>
    542c:	caffffe8 	bgt	53d4 <_vfprintf_r+0x12bc>
    5430:	ea00010e 	b	5870 <_vfprintf_r+0x1758>
    5434:	e59d3248 	ldr	r3, [sp, #584]	; 0x248
    5438:	e3530000 	cmp	r3, #0
    543c:	ca000063 	bgt	55d0 <_vfprintf_r+0x14b8>
    5440:	e59f3220 	ldr	r3, [pc, #544]	; 5668 <_vfprintf_r+0x1550>
    5444:	e5843000 	str	r3, [r4]
    5448:	e3a03001 	mov	r3, #1
    544c:	e5843004 	str	r3, [r4, #4]
    5450:	e59d3234 	ldr	r3, [sp, #564]	; 0x234
    5454:	e2833001 	add	r3, r3, #1
    5458:	e58d3234 	str	r3, [sp, #564]	; 0x234
    545c:	e59d3230 	ldr	r3, [sp, #560]	; 0x230
    5460:	e2833001 	add	r3, r3, #1
    5464:	e3530007 	cmp	r3, #7
    5468:	e58d3230 	str	r3, [sp, #560]	; 0x230
    546c:	d2844008 	addle	r4, r4, #8
    5470:	da000006 	ble	5490 <_vfprintf_r+0x1378>
    5474:	e1a00007 	mov	r0, r7
    5478:	e1a01006 	mov	r1, r6
    547c:	e28d2f8b 	add	r2, sp, #556	; 0x22c
    5480:	eb000f20 	bl	9108 <__sprint_r>
    5484:	e3500000 	cmp	r0, #0
    5488:	1a0001c3 	bne	5b9c <_vfprintf_r+0x1a84>
    548c:	e28d4f71 	add	r4, sp, #452	; 0x1c4
    5490:	e59d3248 	ldr	r3, [sp, #584]	; 0x248
    5494:	e3530000 	cmp	r3, #0
    5498:	1a000004 	bne	54b0 <_vfprintf_r+0x1398>
    549c:	e59d0024 	ldr	r0, [sp, #36]	; 0x24
    54a0:	e3500000 	cmp	r0, #0
    54a4:	1a000001 	bne	54b0 <_vfprintf_r+0x1398>
    54a8:	e3150001 	tst	r5, #1
    54ac:	0a000171 	beq	5a78 <_vfprintf_r+0x1960>
    54b0:	e59d2040 	ldr	r2, [sp, #64]	; 0x40
    54b4:	e59d3234 	ldr	r3, [sp, #564]	; 0x234
    54b8:	e59d1044 	ldr	r1, [sp, #68]	; 0x44
    54bc:	e0833002 	add	r3, r3, r2
    54c0:	e8840006 	stm	r4, {r1, r2}
    54c4:	e58d3234 	str	r3, [sp, #564]	; 0x234
    54c8:	e59d3230 	ldr	r3, [sp, #560]	; 0x230
    54cc:	e2833001 	add	r3, r3, #1
    54d0:	e3530007 	cmp	r3, #7
    54d4:	e58d3230 	str	r3, [sp, #560]	; 0x230
    54d8:	d2844008 	addle	r4, r4, #8
    54dc:	da000006 	ble	54fc <_vfprintf_r+0x13e4>
    54e0:	e1a00007 	mov	r0, r7
    54e4:	e1a01006 	mov	r1, r6
    54e8:	e28d2f8b 	add	r2, sp, #556	; 0x22c
    54ec:	eb000f05 	bl	9108 <__sprint_r>
    54f0:	e3500000 	cmp	r0, #0
    54f4:	1a0001a8 	bne	5b9c <_vfprintf_r+0x1a84>
    54f8:	e28d4f71 	add	r4, sp, #452	; 0x1c4
    54fc:	e59d8248 	ldr	r8, [sp, #584]	; 0x248
    5500:	e2688000 	rsb	r8, r8, #0
    5504:	e3580000 	cmp	r8, #0
    5508:	ca000014 	bgt	5560 <_vfprintf_r+0x1448>
    550c:	ea000028 	b	55b4 <_vfprintf_r+0x149c>
    5510:	e5843000 	str	r3, [r4]
    5514:	e3a03010 	mov	r3, #16
    5518:	e5843004 	str	r3, [r4, #4]
    551c:	e59d3234 	ldr	r3, [sp, #564]	; 0x234
    5520:	e2833010 	add	r3, r3, #16
    5524:	e58d3234 	str	r3, [sp, #564]	; 0x234
    5528:	e59d3230 	ldr	r3, [sp, #560]	; 0x230
    552c:	e2833001 	add	r3, r3, #1
    5530:	e3530007 	cmp	r3, #7
    5534:	e58d3230 	str	r3, [sp, #560]	; 0x230
    5538:	d2844008 	addle	r4, r4, #8
    553c:	da000006 	ble	555c <_vfprintf_r+0x1444>
    5540:	e1a00007 	mov	r0, r7
    5544:	e1a01006 	mov	r1, r6
    5548:	e28d2f8b 	add	r2, sp, #556	; 0x22c
    554c:	eb000eed 	bl	9108 <__sprint_r>
    5550:	e3500000 	cmp	r0, #0
    5554:	1a000190 	bne	5b9c <_vfprintf_r+0x1a84>
    5558:	e28d4f71 	add	r4, sp, #452	; 0x1c4
    555c:	e2488010 	sub	r8, r8, #16
    5560:	e3580010 	cmp	r8, #16
    5564:	e59f3100 	ldr	r3, [pc, #256]	; 566c <_vfprintf_r+0x1554>
    5568:	caffffe8 	bgt	5510 <_vfprintf_r+0x13f8>
    556c:	e5843000 	str	r3, [r4]
    5570:	e59d3234 	ldr	r3, [sp, #564]	; 0x234
    5574:	e5848004 	str	r8, [r4, #4]
    5578:	e0838008 	add	r8, r3, r8
    557c:	e59d3230 	ldr	r3, [sp, #560]	; 0x230
    5580:	e2833001 	add	r3, r3, #1
    5584:	e3530007 	cmp	r3, #7
    5588:	e58d8234 	str	r8, [sp, #564]	; 0x234
    558c:	e58d3230 	str	r3, [sp, #560]	; 0x230
    5590:	d2844008 	addle	r4, r4, #8
    5594:	da000006 	ble	55b4 <_vfprintf_r+0x149c>
    5598:	e1a00007 	mov	r0, r7
    559c:	e1a01006 	mov	r1, r6
    55a0:	e28d2f8b 	add	r2, sp, #556	; 0x22c
    55a4:	eb000ed7 	bl	9108 <__sprint_r>
    55a8:	e3500000 	cmp	r0, #0
    55ac:	1a00017a 	bne	5b9c <_vfprintf_r+0x1a84>
    55b0:	e28d4f71 	add	r4, sp, #452	; 0x1c4
    55b4:	e59d3024 	ldr	r3, [sp, #36]	; 0x24
    55b8:	e59d9024 	ldr	r9, [sp, #36]	; 0x24
    55bc:	e5843004 	str	r3, [r4, #4]
    55c0:	e59d3234 	ldr	r3, [sp, #564]	; 0x234
    55c4:	e584a000 	str	sl, [r4]
    55c8:	e0833009 	add	r3, r3, r9
    55cc:	ea00011b 	b	5a40 <_vfprintf_r+0x1928>
    55d0:	e59dc024 	ldr	ip, [sp, #36]	; 0x24
    55d4:	e59d001c 	ldr	r0, [sp, #28]
    55d8:	e1a0800c 	mov	r8, ip
    55dc:	e1580000 	cmp	r8, r0
    55e0:	a1a08000 	movge	r8, r0
    55e4:	e3580000 	cmp	r8, #0
    55e8:	e08a900c 	add	r9, sl, ip
    55ec:	da000011 	ble	5638 <_vfprintf_r+0x1520>
    55f0:	e59d3234 	ldr	r3, [sp, #564]	; 0x234
    55f4:	e0833008 	add	r3, r3, r8
    55f8:	e584a000 	str	sl, [r4]
    55fc:	e5848004 	str	r8, [r4, #4]
    5600:	e58d3234 	str	r3, [sp, #564]	; 0x234
    5604:	e59d3230 	ldr	r3, [sp, #560]	; 0x230
    5608:	e2833001 	add	r3, r3, #1
    560c:	e3530007 	cmp	r3, #7
    5610:	e58d3230 	str	r3, [sp, #560]	; 0x230
    5614:	d2844008 	addle	r4, r4, #8
    5618:	da000006 	ble	5638 <_vfprintf_r+0x1520>
    561c:	e1a00007 	mov	r0, r7
    5620:	e1a01006 	mov	r1, r6
    5624:	e28d2f8b 	add	r2, sp, #556	; 0x22c
    5628:	eb000eb6 	bl	9108 <__sprint_r>
    562c:	e3500000 	cmp	r0, #0
    5630:	1a000159 	bne	5b9c <_vfprintf_r+0x1a84>
    5634:	e28d4f71 	add	r4, sp, #452	; 0x1c4
    5638:	e59d101c 	ldr	r1, [sp, #28]
    563c:	e1c88fc8 	bic	r8, r8, r8, asr #31
    5640:	e0688001 	rsb	r8, r8, r1
    5644:	e3580000 	cmp	r8, #0
    5648:	ca00001d 	bgt	56c4 <_vfprintf_r+0x15ac>
    564c:	ea000031 	b	5718 <_vfprintf_r+0x1600>
    5650:	0000ce7c 	.word	0x0000ce7c
    5654:	0000ce80 	.word	0x0000ce80
    5658:	0000ce84 	.word	0x0000ce84
    565c:	0000ce88 	.word	0x0000ce88
    5660:	0000ce9d 	.word	0x0000ce9d
    5664:	0000ce8c 	.word	0x0000ce8c
    5668:	0000ceae 	.word	0x0000ceae
    566c:	0000ceb0 	.word	0x0000ceb0
    5670:	0000ce6c 	.word	0x0000ce6c
    5674:	e5843000 	str	r3, [r4]
    5678:	e3a03010 	mov	r3, #16
    567c:	e5843004 	str	r3, [r4, #4]
    5680:	e59d3234 	ldr	r3, [sp, #564]	; 0x234
    5684:	e2833010 	add	r3, r3, #16
    5688:	e58d3234 	str	r3, [sp, #564]	; 0x234
    568c:	e59d3230 	ldr	r3, [sp, #560]	; 0x230
    5690:	e2833001 	add	r3, r3, #1
    5694:	e3530007 	cmp	r3, #7
    5698:	e58d3230 	str	r3, [sp, #560]	; 0x230
    569c:	d2844008 	addle	r4, r4, #8
    56a0:	da000006 	ble	56c0 <_vfprintf_r+0x15a8>
    56a4:	e1a00007 	mov	r0, r7
    56a8:	e1a01006 	mov	r1, r6
    56ac:	e28d2f8b 	add	r2, sp, #556	; 0x22c
    56b0:	eb000e94 	bl	9108 <__sprint_r>
    56b4:	e3500000 	cmp	r0, #0
    56b8:	1a000137 	bne	5b9c <_vfprintf_r+0x1a84>
    56bc:	e28d4f71 	add	r4, sp, #452	; 0x1c4
    56c0:	e2488010 	sub	r8, r8, #16
    56c4:	e3580010 	cmp	r8, #16
    56c8:	e51f3064 	ldr	r3, [pc, #-100]	; 566c <_vfprintf_r+0x1554>
    56cc:	caffffe8 	bgt	5674 <_vfprintf_r+0x155c>
    56d0:	e5843000 	str	r3, [r4]
    56d4:	e59d3234 	ldr	r3, [sp, #564]	; 0x234
    56d8:	e5848004 	str	r8, [r4, #4]
    56dc:	e0838008 	add	r8, r3, r8
    56e0:	e59d3230 	ldr	r3, [sp, #560]	; 0x230
    56e4:	e2833001 	add	r3, r3, #1
    56e8:	e3530007 	cmp	r3, #7
    56ec:	e58d8234 	str	r8, [sp, #564]	; 0x234
    56f0:	e58d3230 	str	r3, [sp, #560]	; 0x230
    56f4:	d2844008 	addle	r4, r4, #8
    56f8:	da000006 	ble	5718 <_vfprintf_r+0x1600>
    56fc:	e1a00007 	mov	r0, r7
    5700:	e1a01006 	mov	r1, r6
    5704:	e28d2f8b 	add	r2, sp, #556	; 0x22c
    5708:	eb000e7e 	bl	9108 <__sprint_r>
    570c:	e3500000 	cmp	r0, #0
    5710:	1a000121 	bne	5b9c <_vfprintf_r+0x1a84>
    5714:	e28d4f71 	add	r4, sp, #452	; 0x1c4
    5718:	e59d3248 	ldr	r3, [sp, #584]	; 0x248
    571c:	e59d2024 	ldr	r2, [sp, #36]	; 0x24
    5720:	e1530002 	cmp	r3, r2
    5724:	ba000001 	blt	5730 <_vfprintf_r+0x1618>
    5728:	e3150001 	tst	r5, #1
    572c:	0a000013 	beq	5780 <_vfprintf_r+0x1668>
    5730:	e59d3044 	ldr	r3, [sp, #68]	; 0x44
    5734:	e59dc040 	ldr	ip, [sp, #64]	; 0x40
    5738:	e5843000 	str	r3, [r4]
    573c:	e59d3234 	ldr	r3, [sp, #564]	; 0x234
    5740:	e083300c 	add	r3, r3, ip
    5744:	e584c004 	str	ip, [r4, #4]
    5748:	e58d3234 	str	r3, [sp, #564]	; 0x234
    574c:	e59d3230 	ldr	r3, [sp, #560]	; 0x230
    5750:	e2833001 	add	r3, r3, #1
    5754:	e3530007 	cmp	r3, #7
    5758:	e58d3230 	str	r3, [sp, #560]	; 0x230
    575c:	d2844008 	addle	r4, r4, #8
    5760:	da000006 	ble	5780 <_vfprintf_r+0x1668>
    5764:	e1a00007 	mov	r0, r7
    5768:	e1a01006 	mov	r1, r6
    576c:	e28d2f8b 	add	r2, sp, #556	; 0x22c
    5770:	eb000e64 	bl	9108 <__sprint_r>
    5774:	e3500000 	cmp	r0, #0
    5778:	1a000107 	bne	5b9c <_vfprintf_r+0x1a84>
    577c:	e28d4f71 	add	r4, sp, #452	; 0x1c4
    5780:	e59d001c 	ldr	r0, [sp, #28]
    5784:	e59d8248 	ldr	r8, [sp, #584]	; 0x248
    5788:	e59d1024 	ldr	r1, [sp, #36]	; 0x24
    578c:	e08aa000 	add	sl, sl, r0
    5790:	e06a9009 	rsb	r9, sl, r9
    5794:	e0688001 	rsb	r8, r8, r1
    5798:	e1590008 	cmp	r9, r8
    579c:	b1a08009 	movlt	r8, r9
    57a0:	a1a08008 	movge	r8, r8
    57a4:	e3580000 	cmp	r8, #0
    57a8:	da000011 	ble	57f4 <_vfprintf_r+0x16dc>
    57ac:	e59d3234 	ldr	r3, [sp, #564]	; 0x234
    57b0:	e0833008 	add	r3, r3, r8
    57b4:	e584a000 	str	sl, [r4]
    57b8:	e5848004 	str	r8, [r4, #4]
    57bc:	e58d3234 	str	r3, [sp, #564]	; 0x234
    57c0:	e59d3230 	ldr	r3, [sp, #560]	; 0x230
    57c4:	e2833001 	add	r3, r3, #1
    57c8:	e3530007 	cmp	r3, #7
    57cc:	e58d3230 	str	r3, [sp, #560]	; 0x230
    57d0:	d2844008 	addle	r4, r4, #8
    57d4:	da000006 	ble	57f4 <_vfprintf_r+0x16dc>
    57d8:	e1a00007 	mov	r0, r7
    57dc:	e1a01006 	mov	r1, r6
    57e0:	e28d2f8b 	add	r2, sp, #556	; 0x22c
    57e4:	eb000e47 	bl	9108 <__sprint_r>
    57e8:	e3500000 	cmp	r0, #0
    57ec:	1a0000ea 	bne	5b9c <_vfprintf_r+0x1a84>
    57f0:	e28d4f71 	add	r4, sp, #452	; 0x1c4
    57f4:	e59d3248 	ldr	r3, [sp, #584]	; 0x248
    57f8:	e59d2024 	ldr	r2, [sp, #36]	; 0x24
    57fc:	e1c88fc8 	bic	r8, r8, r8, asr #31
    5800:	e0633002 	rsb	r3, r3, r2
    5804:	e0688003 	rsb	r8, r8, r3
    5808:	e3580000 	cmp	r8, #0
    580c:	ca000014 	bgt	5864 <_vfprintf_r+0x174c>
    5810:	ea000098 	b	5a78 <_vfprintf_r+0x1960>
    5814:	e5843000 	str	r3, [r4]
    5818:	e3a03010 	mov	r3, #16
    581c:	e5843004 	str	r3, [r4, #4]
    5820:	e59d3234 	ldr	r3, [sp, #564]	; 0x234
    5824:	e2833010 	add	r3, r3, #16
    5828:	e58d3234 	str	r3, [sp, #564]	; 0x234
    582c:	e59d3230 	ldr	r3, [sp, #560]	; 0x230
    5830:	e2833001 	add	r3, r3, #1
    5834:	e3530007 	cmp	r3, #7
    5838:	e58d3230 	str	r3, [sp, #560]	; 0x230
    583c:	d2844008 	addle	r4, r4, #8
    5840:	da000006 	ble	5860 <_vfprintf_r+0x1748>
    5844:	e1a00007 	mov	r0, r7
    5848:	e1a01006 	mov	r1, r6
    584c:	e28d2f8b 	add	r2, sp, #556	; 0x22c
    5850:	eb000e2c 	bl	9108 <__sprint_r>
    5854:	e3500000 	cmp	r0, #0
    5858:	1a0000cf 	bne	5b9c <_vfprintf_r+0x1a84>
    585c:	e28d4f71 	add	r4, sp, #452	; 0x1c4
    5860:	e2488010 	sub	r8, r8, #16
    5864:	e3580010 	cmp	r8, #16
    5868:	e51f3204 	ldr	r3, [pc, #-516]	; 566c <_vfprintf_r+0x1554>
    586c:	caffffe8 	bgt	5814 <_vfprintf_r+0x16fc>
    5870:	e8840108 	stm	r4, {r3, r8}
    5874:	e59d3234 	ldr	r3, [sp, #564]	; 0x234
    5878:	e0838008 	add	r8, r3, r8
    587c:	e58d8234 	str	r8, [sp, #564]	; 0x234
    5880:	ea00006f 	b	5a44 <_vfprintf_r+0x192c>
    5884:	e59d3024 	ldr	r3, [sp, #36]	; 0x24
    5888:	e3530001 	cmp	r3, #1
    588c:	ca000001 	bgt	5898 <_vfprintf_r+0x1780>
    5890:	e3150001 	tst	r5, #1
    5894:	0a000050 	beq	59dc <_vfprintf_r+0x18c4>
    5898:	e3a03001 	mov	r3, #1
    589c:	e5843004 	str	r3, [r4, #4]
    58a0:	e59d3234 	ldr	r3, [sp, #564]	; 0x234
    58a4:	e2833001 	add	r3, r3, #1
    58a8:	e584a000 	str	sl, [r4]
    58ac:	e58d3234 	str	r3, [sp, #564]	; 0x234
    58b0:	e59d3230 	ldr	r3, [sp, #560]	; 0x230
    58b4:	e2833001 	add	r3, r3, #1
    58b8:	e3530007 	cmp	r3, #7
    58bc:	e58d3230 	str	r3, [sp, #560]	; 0x230
    58c0:	d2844008 	addle	r4, r4, #8
    58c4:	da000006 	ble	58e4 <_vfprintf_r+0x17cc>
    58c8:	e1a00007 	mov	r0, r7
    58cc:	e1a01006 	mov	r1, r6
    58d0:	e28d2f8b 	add	r2, sp, #556	; 0x22c
    58d4:	eb000e0b 	bl	9108 <__sprint_r>
    58d8:	e3500000 	cmp	r0, #0
    58dc:	1a0000ae 	bne	5b9c <_vfprintf_r+0x1a84>
    58e0:	e28d4f71 	add	r4, sp, #452	; 0x1c4
    58e4:	e59dc040 	ldr	ip, [sp, #64]	; 0x40
    58e8:	e59d3234 	ldr	r3, [sp, #564]	; 0x234
    58ec:	e59d9044 	ldr	r9, [sp, #68]	; 0x44
    58f0:	e083300c 	add	r3, r3, ip
    58f4:	e8841200 	stm	r4, {r9, ip}
    58f8:	e58d3234 	str	r3, [sp, #564]	; 0x234
    58fc:	e59d3230 	ldr	r3, [sp, #560]	; 0x230
    5900:	e2833001 	add	r3, r3, #1
    5904:	e3530007 	cmp	r3, #7
    5908:	e58d3230 	str	r3, [sp, #560]	; 0x230
    590c:	d2844008 	addle	r4, r4, #8
    5910:	da000006 	ble	5930 <_vfprintf_r+0x1818>
    5914:	e1a00007 	mov	r0, r7
    5918:	e1a01006 	mov	r1, r6
    591c:	e28d2f8b 	add	r2, sp, #556	; 0x22c
    5920:	eb000df8 	bl	9108 <__sprint_r>
    5924:	e3500000 	cmp	r0, #0
    5928:	1a00009b 	bne	5b9c <_vfprintf_r+0x1a84>
    592c:	e28d4f71 	add	r4, sp, #452	; 0x1c4
    5930:	e28d0038 	add	r0, sp, #56	; 0x38
    5934:	e8900003 	ldm	r0, {r0, r1}
    5938:	e3a02000 	mov	r2, #0
    593c:	e3a03000 	mov	r3, #0
    5940:	eb001a92 	bl	c390 <__aeabi_dcmpeq>
    5944:	e3500000 	cmp	r0, #0
    5948:	e59d0024 	ldr	r0, [sp, #36]	; 0x24
    594c:	028aa001 	addeq	sl, sl, #1
    5950:	e2408001 	sub	r8, r0, #1
    5954:	0584a000 	streq	sl, [r4]
    5958:	0a00001a 	beq	59c8 <_vfprintf_r+0x18b0>
    595c:	e3580000 	cmp	r8, #0
    5960:	ca000014 	bgt	59b8 <_vfprintf_r+0x18a0>
    5964:	ea00002f 	b	5a28 <_vfprintf_r+0x1910>
    5968:	e5843000 	str	r3, [r4]
    596c:	e3a03010 	mov	r3, #16
    5970:	e5843004 	str	r3, [r4, #4]
    5974:	e59d3234 	ldr	r3, [sp, #564]	; 0x234
    5978:	e2833010 	add	r3, r3, #16
    597c:	e58d3234 	str	r3, [sp, #564]	; 0x234
    5980:	e59d3230 	ldr	r3, [sp, #560]	; 0x230
    5984:	e2833001 	add	r3, r3, #1
    5988:	e3530007 	cmp	r3, #7
    598c:	e58d3230 	str	r3, [sp, #560]	; 0x230
    5990:	d2844008 	addle	r4, r4, #8
    5994:	da000006 	ble	59b4 <_vfprintf_r+0x189c>
    5998:	e1a00007 	mov	r0, r7
    599c:	e1a01006 	mov	r1, r6
    59a0:	e28d2f8b 	add	r2, sp, #556	; 0x22c
    59a4:	eb000dd7 	bl	9108 <__sprint_r>
    59a8:	e3500000 	cmp	r0, #0
    59ac:	1a00007a 	bne	5b9c <_vfprintf_r+0x1a84>
    59b0:	e28d4f71 	add	r4, sp, #452	; 0x1c4
    59b4:	e2488010 	sub	r8, r8, #16
    59b8:	e3580010 	cmp	r8, #16
    59bc:	e51f3358 	ldr	r3, [pc, #-856]	; 566c <_vfprintf_r+0x1554>
    59c0:	caffffe8 	bgt	5968 <_vfprintf_r+0x1850>
    59c4:	e5843000 	str	r3, [r4]
    59c8:	e5848004 	str	r8, [r4, #4]
    59cc:	e59d3234 	ldr	r3, [sp, #564]	; 0x234
    59d0:	e0838008 	add	r8, r3, r8
    59d4:	e58d8234 	str	r8, [sp, #564]	; 0x234
    59d8:	ea000005 	b	59f4 <_vfprintf_r+0x18dc>
    59dc:	e3a03001 	mov	r3, #1
    59e0:	e5843004 	str	r3, [r4, #4]
    59e4:	e59d3234 	ldr	r3, [sp, #564]	; 0x234
    59e8:	e2833001 	add	r3, r3, #1
    59ec:	e584a000 	str	sl, [r4]
    59f0:	e58d3234 	str	r3, [sp, #564]	; 0x234
    59f4:	e59d3230 	ldr	r3, [sp, #560]	; 0x230
    59f8:	e2833001 	add	r3, r3, #1
    59fc:	e3530007 	cmp	r3, #7
    5a00:	e58d3230 	str	r3, [sp, #560]	; 0x230
    5a04:	d2844008 	addle	r4, r4, #8
    5a08:	da000006 	ble	5a28 <_vfprintf_r+0x1910>
    5a0c:	e1a00007 	mov	r0, r7
    5a10:	e1a01006 	mov	r1, r6
    5a14:	e28d2f8b 	add	r2, sp, #556	; 0x22c
    5a18:	eb000dba 	bl	9108 <__sprint_r>
    5a1c:	e3500000 	cmp	r0, #0
    5a20:	1a00005d 	bne	5b9c <_vfprintf_r+0x1a84>
    5a24:	e28d4f71 	add	r4, sp, #452	; 0x1c4
    5a28:	e28d3f8e 	add	r3, sp, #568	; 0x238
    5a2c:	e59d104c 	ldr	r1, [sp, #76]	; 0x4c
    5a30:	e5843000 	str	r3, [r4]
    5a34:	e59d3234 	ldr	r3, [sp, #564]	; 0x234
    5a38:	e5841004 	str	r1, [r4, #4]
    5a3c:	e0833001 	add	r3, r3, r1
    5a40:	e58d3234 	str	r3, [sp, #564]	; 0x234
    5a44:	e59d3230 	ldr	r3, [sp, #560]	; 0x230
    5a48:	e2833001 	add	r3, r3, #1
    5a4c:	e3530007 	cmp	r3, #7
    5a50:	e58d3230 	str	r3, [sp, #560]	; 0x230
    5a54:	d2844008 	addle	r4, r4, #8
    5a58:	da000006 	ble	5a78 <_vfprintf_r+0x1960>
    5a5c:	e1a00007 	mov	r0, r7
    5a60:	e1a01006 	mov	r1, r6
    5a64:	e28d2f8b 	add	r2, sp, #556	; 0x22c
    5a68:	eb000da6 	bl	9108 <__sprint_r>
    5a6c:	e3500000 	cmp	r0, #0
    5a70:	1a000049 	bne	5b9c <_vfprintf_r+0x1a84>
    5a74:	e28d4f71 	add	r4, sp, #452	; 0x1c4
    5a78:	e3150004 	tst	r5, #4
    5a7c:	0a00002c 	beq	5b34 <_vfprintf_r+0x1a1c>
    5a80:	e59d202c 	ldr	r2, [sp, #44]	; 0x2c
    5a84:	e59d3034 	ldr	r3, [sp, #52]	; 0x34
    5a88:	e0635002 	rsb	r5, r3, r2
    5a8c:	e3550000 	cmp	r5, #0
    5a90:	ca000014 	bgt	5ae8 <_vfprintf_r+0x19d0>
    5a94:	ea000026 	b	5b34 <_vfprintf_r+0x1a1c>
    5a98:	e5843000 	str	r3, [r4]
    5a9c:	e3a03010 	mov	r3, #16
    5aa0:	e5843004 	str	r3, [r4, #4]
    5aa4:	e59d3234 	ldr	r3, [sp, #564]	; 0x234
    5aa8:	e2833010 	add	r3, r3, #16
    5aac:	e58d3234 	str	r3, [sp, #564]	; 0x234
    5ab0:	e59d3230 	ldr	r3, [sp, #560]	; 0x230
    5ab4:	e2833001 	add	r3, r3, #1
    5ab8:	e3530007 	cmp	r3, #7
    5abc:	e58d3230 	str	r3, [sp, #560]	; 0x230
    5ac0:	d2844008 	addle	r4, r4, #8
    5ac4:	da000006 	ble	5ae4 <_vfprintf_r+0x19cc>
    5ac8:	e1a00007 	mov	r0, r7
    5acc:	e1a01006 	mov	r1, r6
    5ad0:	e28d2f8b 	add	r2, sp, #556	; 0x22c
    5ad4:	eb000d8b 	bl	9108 <__sprint_r>
    5ad8:	e3500000 	cmp	r0, #0
    5adc:	1a00002e 	bne	5b9c <_vfprintf_r+0x1a84>
    5ae0:	e28d4f71 	add	r4, sp, #452	; 0x1c4
    5ae4:	e2455010 	sub	r5, r5, #16
    5ae8:	e3550010 	cmp	r5, #16
    5aec:	e51f3484 	ldr	r3, [pc, #-1156]	; 5670 <_vfprintf_r+0x1558>
    5af0:	caffffe8 	bgt	5a98 <_vfprintf_r+0x1980>
    5af4:	e5843000 	str	r3, [r4]
    5af8:	e59d3234 	ldr	r3, [sp, #564]	; 0x234
    5afc:	e5845004 	str	r5, [r4, #4]
    5b00:	e0835005 	add	r5, r3, r5
    5b04:	e59d3230 	ldr	r3, [sp, #560]	; 0x230
    5b08:	e2833001 	add	r3, r3, #1
    5b0c:	e3530007 	cmp	r3, #7
    5b10:	e58d5234 	str	r5, [sp, #564]	; 0x234
    5b14:	e58d3230 	str	r3, [sp, #560]	; 0x230
    5b18:	da000005 	ble	5b34 <_vfprintf_r+0x1a1c>
    5b1c:	e1a00007 	mov	r0, r7
    5b20:	e1a01006 	mov	r1, r6
    5b24:	e28d2f8b 	add	r2, sp, #556	; 0x22c
    5b28:	eb000d76 	bl	9108 <__sprint_r>
    5b2c:	e3500000 	cmp	r0, #0
    5b30:	1a000019 	bne	5b9c <_vfprintf_r+0x1a84>
    5b34:	e28d002c 	add	r0, sp, #44	; 0x2c
    5b38:	e8901201 	ldm	r0, {r0, r9, ip}
    5b3c:	e59d3234 	ldr	r3, [sp, #564]	; 0x234
    5b40:	e15c0000 	cmp	ip, r0
    5b44:	a089900c 	addge	r9, r9, ip
    5b48:	b0899000 	addlt	r9, r9, r0
    5b4c:	e3530000 	cmp	r3, #0
    5b50:	e58d9030 	str	r9, [sp, #48]	; 0x30
    5b54:	0a000005 	beq	5b70 <_vfprintf_r+0x1a58>
    5b58:	e1a00007 	mov	r0, r7
    5b5c:	e1a01006 	mov	r1, r6
    5b60:	e28d2f8b 	add	r2, sp, #556	; 0x22c
    5b64:	eb000d67 	bl	9108 <__sprint_r>
    5b68:	e3500000 	cmp	r0, #0
    5b6c:	1a00000a 	bne	5b9c <_vfprintf_r+0x1a84>
    5b70:	e3a03000 	mov	r3, #0
    5b74:	e58d3230 	str	r3, [sp, #560]	; 0x230
    5b78:	e59da020 	ldr	sl, [sp, #32]
    5b7c:	e28d4f71 	add	r4, sp, #452	; 0x1c4
    5b80:	eafff9c5 	b	429c <_vfprintf_r+0x184>
    5b84:	e59d3234 	ldr	r3, [sp, #564]	; 0x234
    5b88:	e3530000 	cmp	r3, #0
    5b8c:	11a00007 	movne	r0, r7
    5b90:	11a01006 	movne	r1, r6
    5b94:	128d2f8b 	addne	r2, sp, #556	; 0x22c
    5b98:	1b000d5a 	blne	9108 <__sprint_r>
    5b9c:	e1d630bc 	ldrh	r3, [r6, #12]
    5ba0:	e59d1030 	ldr	r1, [sp, #48]	; 0x30
    5ba4:	e3130040 	tst	r3, #64	; 0x40
    5ba8:	13e01000 	mvnne	r1, #0
    5bac:	e58d1030 	str	r1, [sp, #48]	; 0x30
    5bb0:	e59d0030 	ldr	r0, [sp, #48]	; 0x30
    5bb4:	e28ddf95 	add	sp, sp, #596	; 0x254
    5bb8:	e8bd4ff0 	pop	{r4, r5, r6, r7, r8, r9, sl, fp, lr}
    5bbc:	e12fff1e 	bx	lr

00005bc0 <vfprintf>:
    5bc0:	e52d4004 	push	{r4}		; (str r4, [sp, #-4]!)
    5bc4:	e1a03002 	mov	r3, r2
    5bc8:	e59f2018 	ldr	r2, [pc, #24]	; 5be8 <vfprintf+0x28>
    5bcc:	e1a04000 	mov	r4, r0
    5bd0:	e1a0c001 	mov	ip, r1
    5bd4:	e5920000 	ldr	r0, [r2]
    5bd8:	e1a01004 	mov	r1, r4
    5bdc:	e1a0200c 	mov	r2, ip
    5be0:	e49d4004 	pop	{r4}		; (ldr r4, [sp], #4)
    5be4:	eafff94b 	b	4118 <_vfprintf_r>
    5be8:	40000428 	.word	0x40000428

00005bec <__swsetup_r>:
    5bec:	e92d4038 	push	{r3, r4, r5, lr}
    5bf0:	e59f3104 	ldr	r3, [pc, #260]	; 5cfc <__swsetup_r+0x110>
    5bf4:	e1a05000 	mov	r5, r0
    5bf8:	e5930000 	ldr	r0, [r3]
    5bfc:	e3500000 	cmp	r0, #0
    5c00:	e1a04001 	mov	r4, r1
    5c04:	0a000002 	beq	5c14 <__swsetup_r+0x28>
    5c08:	e5903038 	ldr	r3, [r0, #56]	; 0x38
    5c0c:	e3530000 	cmp	r3, #0
    5c10:	0b000639 	bleq	74fc <__sinit>
    5c14:	e1d430bc 	ldrh	r3, [r4, #12]
    5c18:	e3130008 	tst	r3, #8
    5c1c:	1a000017 	bne	5c80 <__swsetup_r+0x94>
    5c20:	e3130010 	tst	r3, #16
    5c24:	03e00000 	mvneq	r0, #0
    5c28:	0a000031 	beq	5cf4 <__swsetup_r+0x108>
    5c2c:	e3130004 	tst	r3, #4
    5c30:	0a00000f 	beq	5c74 <__swsetup_r+0x88>
    5c34:	e5941030 	ldr	r1, [r4, #48]	; 0x30
    5c38:	e3510000 	cmp	r1, #0
    5c3c:	0a000005 	beq	5c58 <__swsetup_r+0x6c>
    5c40:	e2843040 	add	r3, r4, #64	; 0x40
    5c44:	e1510003 	cmp	r1, r3
    5c48:	11a00005 	movne	r0, r5
    5c4c:	1b0006d2 	blne	779c <_free_r>
    5c50:	e3a03000 	mov	r3, #0
    5c54:	e5843030 	str	r3, [r4, #48]	; 0x30
    5c58:	e1d430bc 	ldrh	r3, [r4, #12]
    5c5c:	e3c33024 	bic	r3, r3, #36	; 0x24
    5c60:	e1c430bc 	strh	r3, [r4, #12]
    5c64:	e3a03000 	mov	r3, #0
    5c68:	e5843004 	str	r3, [r4, #4]
    5c6c:	e5943010 	ldr	r3, [r4, #16]
    5c70:	e5843000 	str	r3, [r4]
    5c74:	e1d430bc 	ldrh	r3, [r4, #12]
    5c78:	e3833008 	orr	r3, r3, #8
    5c7c:	e1c430bc 	strh	r3, [r4, #12]
    5c80:	e5943010 	ldr	r3, [r4, #16]
    5c84:	e3530000 	cmp	r3, #0
    5c88:	1a000005 	bne	5ca4 <__swsetup_r+0xb8>
    5c8c:	e1d430bc 	ldrh	r3, [r4, #12]
    5c90:	e2033d0a 	and	r3, r3, #640	; 0x280
    5c94:	e3530c02 	cmp	r3, #512	; 0x200
    5c98:	11a00005 	movne	r0, r5
    5c9c:	11a01004 	movne	r1, r4
    5ca0:	1b0007c0 	blne	7ba8 <__smakebuf_r>
    5ca4:	e1d430bc 	ldrh	r3, [r4, #12]
    5ca8:	e2132001 	ands	r2, r3, #1
    5cac:	0a000005 	beq	5cc8 <__swsetup_r+0xdc>
    5cb0:	e3a03000 	mov	r3, #0
    5cb4:	e5843008 	str	r3, [r4, #8]
    5cb8:	e5943014 	ldr	r3, [r4, #20]
    5cbc:	e2633000 	rsb	r3, r3, #0
    5cc0:	e5843018 	str	r3, [r4, #24]
    5cc4:	ea000003 	b	5cd8 <__swsetup_r+0xec>
    5cc8:	e3130002 	tst	r3, #2
    5ccc:	05943014 	ldreq	r3, [r4, #20]
    5cd0:	11a03002 	movne	r3, r2
    5cd4:	e5843008 	str	r3, [r4, #8]
    5cd8:	e5943010 	ldr	r3, [r4, #16]
    5cdc:	e3530000 	cmp	r3, #0
    5ce0:	13a00000 	movne	r0, #0
    5ce4:	1a000002 	bne	5cf4 <__swsetup_r+0x108>
    5ce8:	e1d400bc 	ldrh	r0, [r4, #12]
    5cec:	e2100080 	ands	r0, r0, #128	; 0x80
    5cf0:	13e00000 	mvnne	r0, #0
    5cf4:	e8bd4038 	pop	{r3, r4, r5, lr}
    5cf8:	e12fff1e 	bx	lr
    5cfc:	40000428 	.word	0x40000428

00005d00 <quorem>:
    5d00:	e92d4ff8 	push	{r3, r4, r5, r6, r7, r8, r9, sl, fp, lr}
    5d04:	e5902010 	ldr	r2, [r0, #16]
    5d08:	e5913010 	ldr	r3, [r1, #16]
    5d0c:	e1520003 	cmp	r2, r3
    5d10:	e1a04000 	mov	r4, r0
    5d14:	e1a0a001 	mov	sl, r1
    5d18:	b3a00000 	movlt	r0, #0
    5d1c:	ba000060 	blt	5ea4 <quorem+0x1a4>
    5d20:	e2435001 	sub	r5, r3, #1
    5d24:	e2833003 	add	r3, r3, #3
    5d28:	e1a03103 	lsl	r3, r3, #2
    5d2c:	e0812003 	add	r2, r1, r3
    5d30:	e2818014 	add	r8, r1, #20
    5d34:	e5921004 	ldr	r1, [r2, #4]
    5d38:	e0803003 	add	r3, r0, r3
    5d3c:	e2807014 	add	r7, r0, #20
    5d40:	e2811001 	add	r1, r1, #1
    5d44:	e5930004 	ldr	r0, [r3, #4]
    5d48:	e2829004 	add	r9, r2, #4
    5d4c:	eb001696 	bl	b7ac <__aeabi_uidiv>
    5d50:	e2506000 	subs	r6, r0, #0
    5d54:	0a00002a 	beq	5e04 <quorem+0x104>
    5d58:	e3a02000 	mov	r2, #0
    5d5c:	e1a03007 	mov	r3, r7
    5d60:	e1a01008 	mov	r1, r8
    5d64:	e1a00002 	mov	r0, r2
    5d68:	e491b004 	ldr	fp, [r1], #4
    5d6c:	e1a0c80b 	lsl	ip, fp, #16
    5d70:	e1a0c82c 	lsr	ip, ip, #16
    5d74:	e1a0b82b 	lsr	fp, fp, #16
    5d78:	e02c2c96 	mla	ip, r6, ip, r2
    5d7c:	e00b0b96 	mul	fp, r6, fp
    5d80:	e1d3e0b0 	ldrh	lr, [r3]
    5d84:	e08bb82c 	add	fp, fp, ip, lsr #16
    5d88:	e080000e 	add	r0, r0, lr
    5d8c:	e1a0c80c 	lsl	ip, ip, #16
    5d90:	e040e82c 	sub	lr, r0, ip, lsr #16
    5d94:	e1d3c0b2 	ldrh	ip, [r3, #2]
    5d98:	e1a0282b 	lsr	r2, fp, #16
    5d9c:	e1a0b80b 	lsl	fp, fp, #16
    5da0:	e04cc82b 	sub	ip, ip, fp, lsr #16
    5da4:	e08cc84e 	add	ip, ip, lr, asr #16
    5da8:	e1a0e80e 	lsl	lr, lr, #16
    5dac:	e1a0e82e 	lsr	lr, lr, #16
    5db0:	e1a0084c 	asr	r0, ip, #16
    5db4:	e1510009 	cmp	r1, r9
    5db8:	e18ec80c 	orr	ip, lr, ip, lsl #16
    5dbc:	e483c004 	str	ip, [r3], #4
    5dc0:	9affffe8 	bls	5d68 <quorem+0x68>
    5dc4:	e2852004 	add	r2, r5, #4
    5dc8:	e0842102 	add	r2, r4, r2, lsl #2
    5dcc:	e2823004 	add	r3, r2, #4
    5dd0:	e5922004 	ldr	r2, [r2, #4]
    5dd4:	e3520000 	cmp	r2, #0
    5dd8:	1a000009 	bne	5e04 <quorem+0x104>
    5ddc:	ea000000 	b	5de4 <quorem+0xe4>
    5de0:	e2455001 	sub	r5, r5, #1
    5de4:	e2432004 	sub	r2, r3, #4
    5de8:	e1570002 	cmp	r7, r2
    5dec:	2a000003 	bcs	5e00 <quorem+0x100>
    5df0:	e5131004 	ldr	r1, [r3, #-4]
    5df4:	e3510000 	cmp	r1, #0
    5df8:	e1a03002 	mov	r3, r2
    5dfc:	0afffff7 	beq	5de0 <quorem+0xe0>
    5e00:	e5845010 	str	r5, [r4, #16]
    5e04:	e1a00004 	mov	r0, r4
    5e08:	e1a0100a 	mov	r1, sl
    5e0c:	eb000afc 	bl	8a04 <__mcmp>
    5e10:	e3500000 	cmp	r0, #0
    5e14:	ba000021 	blt	5ea0 <quorem+0x1a0>
    5e18:	e2866001 	add	r6, r6, #1
    5e1c:	e1a03007 	mov	r3, r7
    5e20:	e3a02000 	mov	r2, #0
    5e24:	e4981004 	ldr	r1, [r8], #4
    5e28:	e1d3c0b0 	ldrh	ip, [r3]
    5e2c:	e1a00801 	lsl	r0, r1, #16
    5e30:	e04c0820 	sub	r0, ip, r0, lsr #16
    5e34:	e0800002 	add	r0, r0, r2
    5e38:	e1d320b2 	ldrh	r2, [r3, #2]
    5e3c:	e0421821 	sub	r1, r2, r1, lsr #16
    5e40:	e0811840 	add	r1, r1, r0, asr #16
    5e44:	e1a00800 	lsl	r0, r0, #16
    5e48:	e1a00820 	lsr	r0, r0, #16
    5e4c:	e1a02841 	asr	r2, r1, #16
    5e50:	e1580009 	cmp	r8, r9
    5e54:	e1801801 	orr	r1, r0, r1, lsl #16
    5e58:	e4831004 	str	r1, [r3], #4
    5e5c:	9afffff0 	bls	5e24 <quorem+0x124>
    5e60:	e2852004 	add	r2, r5, #4
    5e64:	e0842102 	add	r2, r4, r2, lsl #2
    5e68:	e2823004 	add	r3, r2, #4
    5e6c:	e5922004 	ldr	r2, [r2, #4]
    5e70:	e3520000 	cmp	r2, #0
    5e74:	1a000009 	bne	5ea0 <quorem+0x1a0>
    5e78:	ea000000 	b	5e80 <quorem+0x180>
    5e7c:	e2455001 	sub	r5, r5, #1
    5e80:	e2432004 	sub	r2, r3, #4
    5e84:	e1570002 	cmp	r7, r2
    5e88:	2a000003 	bcs	5e9c <quorem+0x19c>
    5e8c:	e5131004 	ldr	r1, [r3, #-4]
    5e90:	e3510000 	cmp	r1, #0
    5e94:	e1a03002 	mov	r3, r2
    5e98:	0afffff7 	beq	5e7c <quorem+0x17c>
    5e9c:	e5845010 	str	r5, [r4, #16]
    5ea0:	e1a00006 	mov	r0, r6
    5ea4:	e8bd4ff8 	pop	{r3, r4, r5, r6, r7, r8, r9, sl, fp, lr}
    5ea8:	e12fff1e 	bx	lr

00005eac <_dtoa_r>:
    5eac:	e92d4ff0 	push	{r4, r5, r6, r7, r8, r9, sl, fp, lr}
    5eb0:	e5901040 	ldr	r1, [r0, #64]	; 0x40
    5eb4:	e24dd06c 	sub	sp, sp, #108	; 0x6c
    5eb8:	e1a06002 	mov	r6, r2
    5ebc:	e1a07003 	mov	r7, r3
    5ec0:	e3510000 	cmp	r1, #0
    5ec4:	e1a04000 	mov	r4, r0
    5ec8:	e59d509c 	ldr	r5, [sp, #156]	; 0x9c
    5ecc:	e58d6010 	str	r6, [sp, #16]
    5ed0:	e58d7014 	str	r7, [sp, #20]
    5ed4:	0a000007 	beq	5ef8 <_dtoa_r+0x4c>
    5ed8:	e5903044 	ldr	r3, [r0, #68]	; 0x44
    5edc:	e3a02001 	mov	r2, #1
    5ee0:	e5813004 	str	r3, [r1, #4]
    5ee4:	e1a03312 	lsl	r3, r2, r3
    5ee8:	e5813008 	str	r3, [r1, #8]
    5eec:	eb00093d 	bl	83e8 <_Bfree>
    5ef0:	e3a03000 	mov	r3, #0
    5ef4:	e5843040 	str	r3, [r4, #64]	; 0x40
    5ef8:	e59d3014 	ldr	r3, [sp, #20]
    5efc:	e3530000 	cmp	r3, #0
    5f00:	b3a02001 	movlt	r2, #1
    5f04:	b3c33102 	biclt	r3, r3, #-2147483648	; 0x80000000
    5f08:	b5852000 	strlt	r2, [r5]
    5f0c:	b58d3014 	strlt	r3, [sp, #20]
    5f10:	a3a03000 	movge	r3, #0
    5f14:	a5853000 	strge	r3, [r5]
    5f18:	e59d5014 	ldr	r5, [sp, #20]
    5f1c:	e59f3e7c 	ldr	r3, [pc, #3708]	; 6da0 <_dtoa_r+0xef4>
    5f20:	e59f2e78 	ldr	r2, [pc, #3704]	; 6da0 <_dtoa_r+0xef4>
    5f24:	e0053003 	and	r3, r5, r3
    5f28:	e1530002 	cmp	r3, r2
    5f2c:	1a000017 	bne	5f90 <_dtoa_r+0xe4>
    5f30:	e59dc010 	ldr	ip, [sp, #16]
    5f34:	e59f3e68 	ldr	r3, [pc, #3688]	; 6da4 <_dtoa_r+0xef8>
    5f38:	e59d7098 	ldr	r7, [sp, #152]	; 0x98
    5f3c:	e35c0000 	cmp	ip, #0
    5f40:	e5873000 	str	r3, [r7]
    5f44:	159f0e5c 	ldrne	r0, [pc, #3676]	; 6da8 <_dtoa_r+0xefc>
    5f48:	1a000006 	bne	5f68 <_dtoa_r+0xbc>
    5f4c:	e3c504ff 	bic	r0, r5, #-16777216	; 0xff000000
    5f50:	e3c0060f 	bic	r0, r0, #15728640	; 0xf00000
    5f54:	e59f3e4c 	ldr	r3, [pc, #3660]	; 6da8 <_dtoa_r+0xefc>
    5f58:	e59f2e4c 	ldr	r2, [pc, #3660]	; 6dac <_dtoa_r+0xf00>
    5f5c:	e3500000 	cmp	r0, #0
    5f60:	01a00002 	moveq	r0, r2
    5f64:	11a00003 	movne	r0, r3
    5f68:	e59d10a0 	ldr	r1, [sp, #160]	; 0xa0
    5f6c:	e3510000 	cmp	r1, #0
    5f70:	0a000487 	beq	7194 <_dtoa_r+0x12e8>
    5f74:	e5d02003 	ldrb	r2, [r0, #3]
    5f78:	e3520000 	cmp	r2, #0
    5f7c:	e59d20a0 	ldr	r2, [sp, #160]	; 0xa0
    5f80:	e2803003 	add	r3, r0, #3
    5f84:	12803008 	addne	r3, r0, #8
    5f88:	e5823000 	str	r3, [r2]
    5f8c:	ea000480 	b	7194 <_dtoa_r+0x12e8>
    5f90:	e28d8010 	add	r8, sp, #16
    5f94:	e8980180 	ldm	r8, {r7, r8}
    5f98:	e3a02000 	mov	r2, #0
    5f9c:	e1a00007 	mov	r0, r7
    5fa0:	e1a01008 	mov	r1, r8
    5fa4:	e3a03000 	mov	r3, #0
    5fa8:	eb0018f8 	bl	c390 <__aeabi_dcmpeq>
    5fac:	e3500000 	cmp	r0, #0
    5fb0:	e3a06001 	mov	r6, #1
    5fb4:	13a06000 	movne	r6, #0
    5fb8:	e31600ff 	tst	r6, #255	; 0xff
    5fbc:	1a000009 	bne	5fe8 <_dtoa_r+0x13c>
    5fc0:	e59d70a0 	ldr	r7, [sp, #160]	; 0xa0
    5fc4:	e59d6098 	ldr	r6, [sp, #152]	; 0x98
    5fc8:	e3a03001 	mov	r3, #1
    5fcc:	e3570000 	cmp	r7, #0
    5fd0:	e5863000 	str	r3, [r6]
    5fd4:	059f0dd4 	ldreq	r0, [pc, #3540]	; 6db0 <_dtoa_r+0xf04>
    5fd8:	159f3dd4 	ldrne	r3, [pc, #3540]	; 6db4 <_dtoa_r+0xf08>
    5fdc:	15873000 	strne	r3, [r7]
    5fe0:	12430001 	subne	r0, r3, #1
    5fe4:	ea00046a 	b	7194 <_dtoa_r+0x12e8>
    5fe8:	e28d3060 	add	r3, sp, #96	; 0x60
    5fec:	e58d3000 	str	r3, [sp]
    5ff0:	e28d3064 	add	r3, sp, #100	; 0x64
    5ff4:	e58d3004 	str	r3, [sp, #4]
    5ff8:	e1a00004 	mov	r0, r4
    5ffc:	e1a02007 	mov	r2, r7
    6000:	e1a03008 	mov	r3, r8
    6004:	eb000b2a 	bl	8cb4 <__d2b>
    6008:	e1a06085 	lsl	r6, r5, #1
    600c:	e1b06aa6 	lsrs	r6, r6, #21
    6010:	e1a0a000 	mov	sl, r0
    6014:	0a000009 	beq	6040 <_dtoa_r+0x194>
    6018:	e3c834ff 	bic	r3, r8, #-16777216	; 0xff000000
    601c:	e3c3360f 	bic	r3, r3, #15728640	; 0xf00000
    6020:	e38335ff 	orr	r3, r3, #1069547520	; 0x3fc00000
    6024:	e2466fff 	sub	r6, r6, #1020	; 0x3fc
    6028:	e3a0c000 	mov	ip, #0
    602c:	e1a00007 	mov	r0, r7
    6030:	e3831603 	orr	r1, r3, #3145728	; 0x300000
    6034:	e2466003 	sub	r6, r6, #3
    6038:	e58dc05c 	str	ip, [sp, #92]	; 0x5c
    603c:	ea000013 	b	6090 <_dtoa_r+0x1e4>
    6040:	e59d3060 	ldr	r3, [sp, #96]	; 0x60
    6044:	e59d0064 	ldr	r0, [sp, #100]	; 0x64
    6048:	e0800003 	add	r0, r0, r3
    604c:	e2800e43 	add	r0, r0, #1072	; 0x430
    6050:	e2806002 	add	r6, r0, #2
    6054:	e3560020 	cmp	r6, #32
    6058:	c2663040 	rsbgt	r3, r6, #64	; 0x40
    605c:	c1a05315 	lslgt	r5, r5, r3
    6060:	c59d1010 	ldrgt	r1, [sp, #16]
    6064:	d59d2010 	ldrle	r2, [sp, #16]
    6068:	d2660020 	rsble	r0, r6, #32
    606c:	c240001e 	subgt	r0, r0, #30
    6070:	c1850031 	orrgt	r0, r5, r1, lsr r0
    6074:	d1a00012 	lslle	r0, r2, r0
    6078:	eb00172a 	bl	bd28 <__aeabi_ui2d>
    607c:	e3a03001 	mov	r3, #1
    6080:	e2466e43 	sub	r6, r6, #1072	; 0x430
    6084:	e58d305c 	str	r3, [sp, #92]	; 0x5c
    6088:	e241161f 	sub	r1, r1, #32505856	; 0x1f00000
    608c:	e2466003 	sub	r6, r6, #3
    6090:	e3a02000 	mov	r2, #0
    6094:	e59f3d1c 	ldr	r3, [pc, #3356]	; 6db8 <_dtoa_r+0xf0c>
    6098:	eb00165d 	bl	ba14 <__aeabi_dsub>
    609c:	e59f2d18 	ldr	r2, [pc, #3352]	; 6dbc <_dtoa_r+0xf10>
    60a0:	e59f3d18 	ldr	r3, [pc, #3352]	; 6dc0 <_dtoa_r+0xf14>
    60a4:	eb00175f 	bl	be28 <__aeabi_dmul>
    60a8:	e59f2d14 	ldr	r2, [pc, #3348]	; 6dc4 <_dtoa_r+0xf18>
    60ac:	e59f3d14 	ldr	r3, [pc, #3348]	; 6dc8 <_dtoa_r+0xf1c>
    60b0:	eb001658 	bl	ba18 <__adddf3>
    60b4:	e1a07000 	mov	r7, r0
    60b8:	e1a00006 	mov	r0, r6
    60bc:	e1a08001 	mov	r8, r1
    60c0:	eb001721 	bl	bd4c <__aeabi_i2d>
    60c4:	e59f2d00 	ldr	r2, [pc, #3328]	; 6dcc <_dtoa_r+0xf20>
    60c8:	e59f3d00 	ldr	r3, [pc, #3328]	; 6dd0 <_dtoa_r+0xf24>
    60cc:	eb001755 	bl	be28 <__aeabi_dmul>
    60d0:	e1a02000 	mov	r2, r0
    60d4:	e1a03001 	mov	r3, r1
    60d8:	e1a00007 	mov	r0, r7
    60dc:	e1a01008 	mov	r1, r8
    60e0:	eb00164c 	bl	ba18 <__adddf3>
    60e4:	e1a07000 	mov	r7, r0
    60e8:	e1a08001 	mov	r8, r1
    60ec:	eb0018c5 	bl	c408 <__aeabi_d2iz>
    60f0:	e1a01008 	mov	r1, r8
    60f4:	e1a05000 	mov	r5, r0
    60f8:	e3a02000 	mov	r2, #0
    60fc:	e1a00007 	mov	r0, r7
    6100:	e3a03000 	mov	r3, #0
    6104:	eb0018a7 	bl	c3a8 <__aeabi_dcmplt>
    6108:	e3500000 	cmp	r0, #0
    610c:	0a000008 	beq	6134 <_dtoa_r+0x288>
    6110:	e1a00005 	mov	r0, r5
    6114:	eb00170c 	bl	bd4c <__aeabi_i2d>
    6118:	e1a02000 	mov	r2, r0
    611c:	e1a03001 	mov	r3, r1
    6120:	e1a00007 	mov	r0, r7
    6124:	e1a01008 	mov	r1, r8
    6128:	eb001898 	bl	c390 <__aeabi_dcmpeq>
    612c:	e3500000 	cmp	r0, #0
    6130:	02455001 	subeq	r5, r5, #1
    6134:	e3550016 	cmp	r5, #22
    6138:	83a0c001 	movhi	ip, #1
    613c:	858dc044 	strhi	ip, [sp, #68]	; 0x44
    6140:	8a00000b 	bhi	6174 <_dtoa_r+0x2c8>
    6144:	e59f3c88 	ldr	r3, [pc, #3208]	; 6dd4 <_dtoa_r+0xf28>
    6148:	e0833185 	add	r3, r3, r5, lsl #3
    614c:	e8930003 	ldm	r3, {r0, r1}
    6150:	e28d3010 	add	r3, sp, #16
    6154:	e893000c 	ldm	r3, {r2, r3}
    6158:	eb0018a4 	bl	c3f0 <__aeabi_dcmpgt>
    615c:	e3500000 	cmp	r0, #0
    6160:	13a07000 	movne	r7, #0
    6164:	03a01000 	moveq	r1, #0
    6168:	158d7044 	strne	r7, [sp, #68]	; 0x44
    616c:	058d1044 	streq	r1, [sp, #68]	; 0x44
    6170:	12455001 	subne	r5, r5, #1
    6174:	e59db064 	ldr	fp, [sp, #100]	; 0x64
    6178:	e24bb001 	sub	fp, fp, #1
    617c:	e05bb006 	subs	fp, fp, r6
    6180:	43a02000 	movmi	r2, #0
    6184:	558db018 	strpl	fp, [sp, #24]
    6188:	458d2018 	strmi	r2, [sp, #24]
    618c:	426bb000 	rsbmi	fp, fp, #0
    6190:	53a0b000 	movpl	fp, #0
    6194:	e3550000 	cmp	r5, #0
    6198:	a59d3018 	ldrge	r3, [sp, #24]
    619c:	e59d7090 	ldr	r7, [sp, #144]	; 0x90
    61a0:	a0833005 	addge	r3, r3, r5
    61a4:	b3a06000 	movlt	r6, #0
    61a8:	a58d3018 	strge	r3, [sp, #24]
    61ac:	b58d6040 	strlt	r6, [sp, #64]	; 0x40
    61b0:	a58d5040 	strge	r5, [sp, #64]	; 0x40
    61b4:	a3a08000 	movge	r8, #0
    61b8:	b065b00b 	rsblt	fp, r5, fp
    61bc:	b2658000 	rsblt	r8, r5, #0
    61c0:	e3570009 	cmp	r7, #9
    61c4:	83a03000 	movhi	r3, #0
    61c8:	83a06001 	movhi	r6, #1
    61cc:	858d3090 	strhi	r3, [sp, #144]	; 0x90
    61d0:	8a000012 	bhi	6220 <_dtoa_r+0x374>
    61d4:	e3570005 	cmp	r7, #5
    61d8:	c2477004 	subgt	r7, r7, #4
    61dc:	c58d7090 	strgt	r7, [sp, #144]	; 0x90
    61e0:	e59dc090 	ldr	ip, [sp, #144]	; 0x90
    61e4:	e24c3002 	sub	r3, ip, #2
    61e8:	c3a06000 	movgt	r6, #0
    61ec:	d3a06001 	movle	r6, #1
    61f0:	e3530003 	cmp	r3, #3
    61f4:	979ff103 	ldrls	pc, [pc, r3, lsl #2]
    61f8:	ea000008 	b	6220 <_dtoa_r+0x374>
    61fc:	00006240 	.word	0x00006240
    6200:	0000625c 	.word	0x0000625c
    6204:	00006218 	.word	0x00006218
    6208:	0000620c 	.word	0x0000620c
    620c:	e3a01001 	mov	r1, #1
    6210:	e58d1038 	str	r1, [sp, #56]	; 0x38
    6214:	ea000012 	b	6264 <_dtoa_r+0x3b8>
    6218:	e3a02001 	mov	r2, #1
    621c:	ea000008 	b	6244 <_dtoa_r+0x398>
    6220:	e3e0c000 	mvn	ip, #0
    6224:	e3a07001 	mov	r7, #1
    6228:	e58d7038 	str	r7, [sp, #56]	; 0x38
    622c:	e58dc02c 	str	ip, [sp, #44]	; 0x2c
    6230:	e1a0900c 	mov	r9, ip
    6234:	e3a03012 	mov	r3, #18
    6238:	e3a01000 	mov	r1, #0
    623c:	ea000016 	b	629c <_dtoa_r+0x3f0>
    6240:	e3a02000 	mov	r2, #0
    6244:	e59d3094 	ldr	r3, [sp, #148]	; 0x94
    6248:	e3530000 	cmp	r3, #0
    624c:	e58d2038 	str	r2, [sp, #56]	; 0x38
    6250:	c58d302c 	strgt	r3, [sp, #44]	; 0x2c
    6254:	ca00000a 	bgt	6284 <_dtoa_r+0x3d8>
    6258:	ea00000b 	b	628c <_dtoa_r+0x3e0>
    625c:	e3a07000 	mov	r7, #0
    6260:	e58d7038 	str	r7, [sp, #56]	; 0x38
    6264:	e59dc094 	ldr	ip, [sp, #148]	; 0x94
    6268:	e085c00c 	add	ip, r5, ip
    626c:	e28c3001 	add	r3, ip, #1
    6270:	e3530000 	cmp	r3, #0
    6274:	d1a09003 	movle	r9, r3
    6278:	e58dc02c 	str	ip, [sp, #44]	; 0x2c
    627c:	d3a03001 	movle	r3, #1
    6280:	da000006 	ble	62a0 <_dtoa_r+0x3f4>
    6284:	e1a09003 	mov	r9, r3
    6288:	ea000004 	b	62a0 <_dtoa_r+0x3f4>
    628c:	e3a01001 	mov	r1, #1
    6290:	e58d102c 	str	r1, [sp, #44]	; 0x2c
    6294:	e1a09001 	mov	r9, r1
    6298:	e1a03001 	mov	r3, r1
    629c:	e58d1094 	str	r1, [sp, #148]	; 0x94
    62a0:	e3a02000 	mov	r2, #0
    62a4:	e5842044 	str	r2, [r4, #68]	; 0x44
    62a8:	e2822004 	add	r2, r2, #4
    62ac:	ea000003 	b	62c0 <_dtoa_r+0x414>
    62b0:	e5941044 	ldr	r1, [r4, #68]	; 0x44
    62b4:	e2811001 	add	r1, r1, #1
    62b8:	e5841044 	str	r1, [r4, #68]	; 0x44
    62bc:	e1a02082 	lsl	r2, r2, #1
    62c0:	e2821014 	add	r1, r2, #20
    62c4:	e1510003 	cmp	r1, r3
    62c8:	9afffff8 	bls	62b0 <_dtoa_r+0x404>
    62cc:	e1a00004 	mov	r0, r4
    62d0:	e5941044 	ldr	r1, [r4, #68]	; 0x44
    62d4:	eb000823 	bl	8368 <_Balloc>
    62d8:	e359000e 	cmp	r9, #14
    62dc:	83a06000 	movhi	r6, #0
    62e0:	92066001 	andls	r6, r6, #1
    62e4:	e3560000 	cmp	r6, #0
    62e8:	e58d0028 	str	r0, [sp, #40]	; 0x28
    62ec:	e5840040 	str	r0, [r4, #64]	; 0x40
    62f0:	0a000149 	beq	681c <_dtoa_r+0x970>
    62f4:	e28d3010 	add	r3, sp, #16
    62f8:	e893000c 	ldm	r3, {r2, r3}
    62fc:	e3550000 	cmp	r5, #0
    6300:	e58d2050 	str	r2, [sp, #80]	; 0x50
    6304:	e58d3054 	str	r3, [sp, #84]	; 0x54
    6308:	da000030 	ble	63d0 <_dtoa_r+0x524>
    630c:	e59f3ac0 	ldr	r3, [pc, #2752]	; 6dd4 <_dtoa_r+0xf28>
    6310:	e205200f 	and	r2, r5, #15
    6314:	e0833182 	add	r3, r3, r2, lsl #3
    6318:	e89300c0 	ldm	r3, {r6, r7}
    631c:	e58d6020 	str	r6, [sp, #32]
    6320:	e58d7024 	str	r7, [sp, #36]	; 0x24
    6324:	e1a06245 	asr	r6, r5, #4
    6328:	e3160010 	tst	r6, #16
    632c:	03a07002 	moveq	r7, #2
    6330:	0a00000b 	beq	6364 <_dtoa_r+0x4b8>
    6334:	e59f3a9c 	ldr	r3, [pc, #2716]	; 6dd8 <_dtoa_r+0xf2c>
    6338:	e28d1050 	add	r1, sp, #80	; 0x50
    633c:	e8910003 	ldm	r1, {r0, r1}
    6340:	e2833020 	add	r3, r3, #32
    6344:	e893000c 	ldm	r3, {r2, r3}
    6348:	eb00175a 	bl	c0b8 <__aeabi_ddiv>
    634c:	e1a02000 	mov	r2, r0
    6350:	e1a03001 	mov	r3, r1
    6354:	e58d2010 	str	r2, [sp, #16]
    6358:	e58d3014 	str	r3, [sp, #20]
    635c:	e206600f 	and	r6, r6, #15
    6360:	e3a07003 	mov	r7, #3
    6364:	e59fca6c 	ldr	ip, [pc, #2668]	; 6dd8 <_dtoa_r+0xf2c>
    6368:	e58db03c 	str	fp, [sp, #60]	; 0x3c
    636c:	e28d1020 	add	r1, sp, #32
    6370:	e8910003 	ldm	r1, {r0, r1}
    6374:	e1a0b008 	mov	fp, r8
    6378:	e1a08005 	mov	r8, r5
    637c:	e1a0500c 	mov	r5, ip
    6380:	ea000005 	b	639c <_dtoa_r+0x4f0>
    6384:	e3160001 	tst	r6, #1
    6388:	1895000c 	ldmne	r5, {r2, r3}
    638c:	12877001 	addne	r7, r7, #1
    6390:	1b0016a4 	blne	be28 <__aeabi_dmul>
    6394:	e1a060c6 	asr	r6, r6, #1
    6398:	e2855008 	add	r5, r5, #8
    639c:	e3560000 	cmp	r6, #0
    63a0:	1afffff7 	bne	6384 <_dtoa_r+0x4d8>
    63a4:	e58d0020 	str	r0, [sp, #32]
    63a8:	e58d1024 	str	r1, [sp, #36]	; 0x24
    63ac:	e28d3020 	add	r3, sp, #32
    63b0:	e893000c 	ldm	r3, {r2, r3}
    63b4:	e28d1010 	add	r1, sp, #16
    63b8:	e8910003 	ldm	r1, {r0, r1}
    63bc:	e1a05008 	mov	r5, r8
    63c0:	e1a0800b 	mov	r8, fp
    63c4:	e59db03c 	ldr	fp, [sp, #60]	; 0x3c
    63c8:	eb00173a 	bl	c0b8 <__aeabi_ddiv>
    63cc:	ea00001d 	b	6448 <_dtoa_r+0x59c>
    63d0:	e2656000 	rsb	r6, r5, #0
    63d4:	e3560000 	cmp	r6, #0
    63d8:	03a07002 	moveq	r7, #2
    63dc:	0a00001d 	beq	6458 <_dtoa_r+0x5ac>
    63e0:	e59f39ec 	ldr	r3, [pc, #2540]	; 6dd4 <_dtoa_r+0xf28>
    63e4:	e206200f 	and	r2, r6, #15
    63e8:	e0833182 	add	r3, r3, r2, lsl #3
    63ec:	e28d1050 	add	r1, sp, #80	; 0x50
    63f0:	e8910003 	ldm	r1, {r0, r1}
    63f4:	e893000c 	ldm	r3, {r2, r3}
    63f8:	eb00168a 	bl	be28 <__aeabi_dmul>
    63fc:	e59fc9d4 	ldr	ip, [pc, #2516]	; 6dd8 <_dtoa_r+0xf2c>
    6400:	e58db010 	str	fp, [sp, #16]
    6404:	e1a06246 	asr	r6, r6, #4
    6408:	e1a0b008 	mov	fp, r8
    640c:	e3a07002 	mov	r7, #2
    6410:	e1a08005 	mov	r8, r5
    6414:	e1a0500c 	mov	r5, ip
    6418:	ea000005 	b	6434 <_dtoa_r+0x588>
    641c:	e3160001 	tst	r6, #1
    6420:	1895000c 	ldmne	r5, {r2, r3}
    6424:	12877001 	addne	r7, r7, #1
    6428:	1b00167e 	blne	be28 <__aeabi_dmul>
    642c:	e1a060c6 	asr	r6, r6, #1
    6430:	e2855008 	add	r5, r5, #8
    6434:	e3560000 	cmp	r6, #0
    6438:	1afffff7 	bne	641c <_dtoa_r+0x570>
    643c:	e1a05008 	mov	r5, r8
    6440:	e1a0800b 	mov	r8, fp
    6444:	e59db010 	ldr	fp, [sp, #16]
    6448:	e1a02000 	mov	r2, r0
    644c:	e1a03001 	mov	r3, r1
    6450:	e58d2010 	str	r2, [sp, #16]
    6454:	e58d3014 	str	r3, [sp, #20]
    6458:	e59d3044 	ldr	r3, [sp, #68]	; 0x44
    645c:	e3530000 	cmp	r3, #0
    6460:	0a000024 	beq	64f8 <_dtoa_r+0x64c>
    6464:	e28d2010 	add	r2, sp, #16
    6468:	e8920006 	ldm	r2, {r1, r2}
    646c:	e3590000 	cmp	r9, #0
    6470:	d3a0c000 	movle	ip, #0
    6474:	c3a0c001 	movgt	ip, #1
    6478:	e58d1020 	str	r1, [sp, #32]
    647c:	e58d2024 	str	r2, [sp, #36]	; 0x24
    6480:	e1a00001 	mov	r0, r1
    6484:	e59f3950 	ldr	r3, [pc, #2384]	; 6ddc <_dtoa_r+0xf30>
    6488:	e1a01002 	mov	r1, r2
    648c:	e3a02000 	mov	r2, #0
    6490:	e58dc00c 	str	ip, [sp, #12]
    6494:	eb0017c3 	bl	c3a8 <__aeabi_dcmplt>
    6498:	e59dc00c 	ldr	ip, [sp, #12]
    649c:	e3500000 	cmp	r0, #0
    64a0:	e3a06001 	mov	r6, #1
    64a4:	03a06000 	moveq	r6, #0
    64a8:	e11c0006 	tst	ip, r6
    64ac:	0a000011 	beq	64f8 <_dtoa_r+0x64c>
    64b0:	e59d202c 	ldr	r2, [sp, #44]	; 0x2c
    64b4:	e3520000 	cmp	r2, #0
    64b8:	da0000d3 	ble	680c <_dtoa_r+0x960>
    64bc:	e2453001 	sub	r3, r5, #1
    64c0:	e58d303c 	str	r3, [sp, #60]	; 0x3c
    64c4:	e28d1020 	add	r1, sp, #32
    64c8:	e8910003 	ldm	r1, {r0, r1}
    64cc:	e3a02000 	mov	r2, #0
    64d0:	e59f3908 	ldr	r3, [pc, #2312]	; 6de0 <_dtoa_r+0xf34>
    64d4:	eb001653 	bl	be28 <__aeabi_dmul>
    64d8:	e1a03001 	mov	r3, r1
    64dc:	e1a02000 	mov	r2, r0
    64e0:	e58d2010 	str	r2, [sp, #16]
    64e4:	e58d3014 	str	r3, [sp, #20]
    64e8:	e59d302c 	ldr	r3, [sp, #44]	; 0x2c
    64ec:	e2877001 	add	r7, r7, #1
    64f0:	e58d3020 	str	r3, [sp, #32]
    64f4:	ea000001 	b	6500 <_dtoa_r+0x654>
    64f8:	e58d503c 	str	r5, [sp, #60]	; 0x3c
    64fc:	e58d9020 	str	r9, [sp, #32]
    6500:	e1a00007 	mov	r0, r7
    6504:	eb001610 	bl	bd4c <__aeabi_i2d>
    6508:	e28d3010 	add	r3, sp, #16
    650c:	e893000c 	ldm	r3, {r2, r3}
    6510:	eb001644 	bl	be28 <__aeabi_dmul>
    6514:	e3a02000 	mov	r2, #0
    6518:	e59f38c4 	ldr	r3, [pc, #2244]	; 6de4 <_dtoa_r+0xf38>
    651c:	eb00153d 	bl	ba18 <__adddf3>
    6520:	e1a03001 	mov	r3, r1
    6524:	e1a02000 	mov	r2, r0
    6528:	e58d2030 	str	r2, [sp, #48]	; 0x30
    652c:	e58d3034 	str	r3, [sp, #52]	; 0x34
    6530:	e59d3034 	ldr	r3, [sp, #52]	; 0x34
    6534:	e59dc020 	ldr	ip, [sp, #32]
    6538:	e243650d 	sub	r6, r3, #54525952	; 0x3400000
    653c:	e35c0000 	cmp	ip, #0
    6540:	e58d6034 	str	r6, [sp, #52]	; 0x34
    6544:	1a000019 	bne	65b0 <_dtoa_r+0x704>
    6548:	e28d1010 	add	r1, sp, #16
    654c:	e8910003 	ldm	r1, {r0, r1}
    6550:	e3a02000 	mov	r2, #0
    6554:	e59f388c 	ldr	r3, [pc, #2188]	; 6de8 <_dtoa_r+0xf3c>
    6558:	eb00152d 	bl	ba14 <__aeabi_dsub>
    655c:	e59d7030 	ldr	r7, [sp, #48]	; 0x30
    6560:	e1a03006 	mov	r3, r6
    6564:	e1a02007 	mov	r2, r7
    6568:	e58d0010 	str	r0, [sp, #16]
    656c:	e58d1014 	str	r1, [sp, #20]
    6570:	eb00179e 	bl	c3f0 <__aeabi_dcmpgt>
    6574:	e3500000 	cmp	r0, #0
    6578:	159d8020 	ldrne	r8, [sp, #32]
    657c:	159d503c 	ldrne	r5, [sp, #60]	; 0x3c
    6580:	11a07008 	movne	r7, r8
    6584:	1a0001ff 	bne	6d88 <_dtoa_r+0xedc>
    6588:	e59dc030 	ldr	ip, [sp, #48]	; 0x30
    658c:	e28d1010 	add	r1, sp, #16
    6590:	e8910003 	ldm	r1, {r0, r1}
    6594:	e1a0200c 	mov	r2, ip
    6598:	e2863102 	add	r3, r6, #-2147483648	; 0x80000000
    659c:	eb001781 	bl	c3a8 <__aeabi_dcmplt>
    65a0:	e3500000 	cmp	r0, #0
    65a4:	159d8020 	ldrne	r8, [sp, #32]
    65a8:	1a0001ee 	bne	6d68 <_dtoa_r+0xebc>
    65ac:	ea000096 	b	680c <_dtoa_r+0x960>
    65b0:	e59d1038 	ldr	r1, [sp, #56]	; 0x38
    65b4:	e59d6020 	ldr	r6, [sp, #32]
    65b8:	e3510000 	cmp	r1, #0
    65bc:	e59f3810 	ldr	r3, [pc, #2064]	; 6dd4 <_dtoa_r+0xf28>
    65c0:	e2462001 	sub	r2, r6, #1
    65c4:	0a000047 	beq	66e8 <_dtoa_r+0x83c>
    65c8:	e0833182 	add	r3, r3, r2, lsl #3
    65cc:	e893000c 	ldm	r3, {r2, r3}
    65d0:	e3a00000 	mov	r0, #0
    65d4:	e59f1810 	ldr	r1, [pc, #2064]	; 6dec <_dtoa_r+0xf40>
    65d8:	eb0016b6 	bl	c0b8 <__aeabi_ddiv>
    65dc:	e28d3030 	add	r3, sp, #48	; 0x30
    65e0:	e893000c 	ldm	r3, {r2, r3}
    65e4:	eb00150a 	bl	ba14 <__aeabi_dsub>
    65e8:	e3a0c000 	mov	ip, #0
    65ec:	e58d0030 	str	r0, [sp, #48]	; 0x30
    65f0:	e58d1034 	str	r1, [sp, #52]	; 0x34
    65f4:	e28d3010 	add	r3, sp, #16
    65f8:	e893000c 	ldm	r3, {r2, r3}
    65fc:	e59d7028 	ldr	r7, [sp, #40]	; 0x28
    6600:	e58dc010 	str	ip, [sp, #16]
    6604:	e1a00002 	mov	r0, r2
    6608:	e1a01003 	mov	r1, r3
    660c:	e58d200c 	str	r2, [sp, #12]
    6610:	e58d3008 	str	r3, [sp, #8]
    6614:	eb00177b 	bl	c408 <__aeabi_d2iz>
    6618:	e1a06000 	mov	r6, r0
    661c:	eb0015ca 	bl	bd4c <__aeabi_i2d>
    6620:	e59d200c 	ldr	r2, [sp, #12]
    6624:	e59d3008 	ldr	r3, [sp, #8]
    6628:	e58d0048 	str	r0, [sp, #72]	; 0x48
    662c:	e58d104c 	str	r1, [sp, #76]	; 0x4c
    6630:	e1a00002 	mov	r0, r2
    6634:	e1a01003 	mov	r1, r3
    6638:	e28d3048 	add	r3, sp, #72	; 0x48
    663c:	e893000c 	ldm	r3, {r2, r3}
    6640:	eb0014f3 	bl	ba14 <__aeabi_dsub>
    6644:	e2866030 	add	r6, r6, #48	; 0x30
    6648:	e58d0048 	str	r0, [sp, #72]	; 0x48
    664c:	e58d104c 	str	r1, [sp, #76]	; 0x4c
    6650:	e4c76001 	strb	r6, [r7], #1
    6654:	e28d3030 	add	r3, sp, #48	; 0x30
    6658:	e893000c 	ldm	r3, {r2, r3}
    665c:	eb001751 	bl	c3a8 <__aeabi_dcmplt>
    6660:	e3500000 	cmp	r0, #0
    6664:	e1a06007 	mov	r6, r7
    6668:	1a0002bc 	bne	7160 <_dtoa_r+0x12b4>
    666c:	e28d3048 	add	r3, sp, #72	; 0x48
    6670:	e893000c 	ldm	r3, {r2, r3}
    6674:	e3a00000 	mov	r0, #0
    6678:	e59f175c 	ldr	r1, [pc, #1884]	; 6ddc <_dtoa_r+0xf30>
    667c:	eb0014e4 	bl	ba14 <__aeabi_dsub>
    6680:	e28d3030 	add	r3, sp, #48	; 0x30
    6684:	e893000c 	ldm	r3, {r2, r3}
    6688:	eb001746 	bl	c3a8 <__aeabi_dcmplt>
    668c:	e3500000 	cmp	r0, #0
    6690:	1a0000bf 	bne	6994 <_dtoa_r+0xae8>
    6694:	e59d1010 	ldr	r1, [sp, #16]
    6698:	e59d2020 	ldr	r2, [sp, #32]
    669c:	e2811001 	add	r1, r1, #1
    66a0:	e1510002 	cmp	r1, r2
    66a4:	e58d1010 	str	r1, [sp, #16]
    66a8:	aa000057 	bge	680c <_dtoa_r+0x960>
    66ac:	e28d1030 	add	r1, sp, #48	; 0x30
    66b0:	e8910003 	ldm	r1, {r0, r1}
    66b4:	e3a02000 	mov	r2, #0
    66b8:	e59f3720 	ldr	r3, [pc, #1824]	; 6de0 <_dtoa_r+0xf34>
    66bc:	eb0015d9 	bl	be28 <__aeabi_dmul>
    66c0:	e3a02000 	mov	r2, #0
    66c4:	e58d0030 	str	r0, [sp, #48]	; 0x30
    66c8:	e58d1034 	str	r1, [sp, #52]	; 0x34
    66cc:	e59f370c 	ldr	r3, [pc, #1804]	; 6de0 <_dtoa_r+0xf34>
    66d0:	e28d1048 	add	r1, sp, #72	; 0x48
    66d4:	e8910003 	ldm	r1, {r0, r1}
    66d8:	eb0015d2 	bl	be28 <__aeabi_dmul>
    66dc:	e1a02000 	mov	r2, r0
    66e0:	e1a03001 	mov	r3, r1
    66e4:	eaffffc6 	b	6604 <_dtoa_r+0x758>
    66e8:	e0833182 	add	r3, r3, r2, lsl #3
    66ec:	e8930003 	ldm	r3, {r0, r1}
    66f0:	e28d3030 	add	r3, sp, #48	; 0x30
    66f4:	e893000c 	ldm	r3, {r2, r3}
    66f8:	eb0015ca 	bl	be28 <__aeabi_dmul>
    66fc:	e58d0030 	str	r0, [sp, #48]	; 0x30
    6700:	e58d1034 	str	r1, [sp, #52]	; 0x34
    6704:	e28d3010 	add	r3, sp, #16
    6708:	e893000c 	ldm	r3, {r2, r3}
    670c:	e59d6038 	ldr	r6, [sp, #56]	; 0x38
    6710:	e1a00002 	mov	r0, r2
    6714:	e1a01003 	mov	r1, r3
    6718:	e58d200c 	str	r2, [sp, #12]
    671c:	e58d3008 	str	r3, [sp, #8]
    6720:	eb001738 	bl	c408 <__aeabi_d2iz>
    6724:	e1a07000 	mov	r7, r0
    6728:	eb001587 	bl	bd4c <__aeabi_i2d>
    672c:	e59d200c 	ldr	r2, [sp, #12]
    6730:	e59d3008 	ldr	r3, [sp, #8]
    6734:	e58d0010 	str	r0, [sp, #16]
    6738:	e58d1014 	str	r1, [sp, #20]
    673c:	e1a00002 	mov	r0, r2
    6740:	e1a01003 	mov	r1, r3
    6744:	e28d3010 	add	r3, sp, #16
    6748:	e893000c 	ldm	r3, {r2, r3}
    674c:	eb0014b0 	bl	ba14 <__aeabi_dsub>
    6750:	e59d3028 	ldr	r3, [sp, #40]	; 0x28
    6754:	e2877030 	add	r7, r7, #48	; 0x30
    6758:	e58d0010 	str	r0, [sp, #16]
    675c:	e58d1014 	str	r1, [sp, #20]
    6760:	e7c37006 	strb	r7, [r3, r6]
    6764:	e59d7020 	ldr	r7, [sp, #32]
    6768:	e2866001 	add	r6, r6, #1
    676c:	e1560007 	cmp	r6, r7
    6770:	1a00001f 	bne	67f4 <_dtoa_r+0x948>
    6774:	e3a02000 	mov	r2, #0
    6778:	e0836006 	add	r6, r3, r6
    677c:	e28d1030 	add	r1, sp, #48	; 0x30
    6780:	e8910003 	ldm	r1, {r0, r1}
    6784:	e59f3660 	ldr	r3, [pc, #1632]	; 6dec <_dtoa_r+0xf40>
    6788:	eb0014a2 	bl	ba18 <__adddf3>
    678c:	e1a02000 	mov	r2, r0
    6790:	e1a03001 	mov	r3, r1
    6794:	e28d1010 	add	r1, sp, #16
    6798:	e8910003 	ldm	r1, {r0, r1}
    679c:	eb001713 	bl	c3f0 <__aeabi_dcmpgt>
    67a0:	e3500000 	cmp	r0, #0
    67a4:	1a00007a 	bne	6994 <_dtoa_r+0xae8>
    67a8:	e28d3030 	add	r3, sp, #48	; 0x30
    67ac:	e893000c 	ldm	r3, {r2, r3}
    67b0:	e3a00000 	mov	r0, #0
    67b4:	e59f1630 	ldr	r1, [pc, #1584]	; 6dec <_dtoa_r+0xf40>
    67b8:	eb001495 	bl	ba14 <__aeabi_dsub>
    67bc:	e1a02000 	mov	r2, r0
    67c0:	e1a03001 	mov	r3, r1
    67c4:	e28d1010 	add	r1, sp, #16
    67c8:	e8910003 	ldm	r1, {r0, r1}
    67cc:	eb0016f5 	bl	c3a8 <__aeabi_dcmplt>
    67d0:	e3500000 	cmp	r0, #0
    67d4:	0a00000c 	beq	680c <_dtoa_r+0x960>
    67d8:	e1a03006 	mov	r3, r6
    67dc:	e5532001 	ldrb	r2, [r3, #-1]
    67e0:	e3520030 	cmp	r2, #48	; 0x30
    67e4:	e1a06003 	mov	r6, r3
    67e8:	e2433001 	sub	r3, r3, #1
    67ec:	0afffffa 	beq	67dc <_dtoa_r+0x930>
    67f0:	ea00025a 	b	7160 <_dtoa_r+0x12b4>
    67f4:	e3a02000 	mov	r2, #0
    67f8:	e59f35e0 	ldr	r3, [pc, #1504]	; 6de0 <_dtoa_r+0xf34>
    67fc:	eb001589 	bl	be28 <__aeabi_dmul>
    6800:	e1a02000 	mov	r2, r0
    6804:	e1a03001 	mov	r3, r1
    6808:	eaffffc0 	b	6710 <_dtoa_r+0x864>
    680c:	e28d2050 	add	r2, sp, #80	; 0x50
    6810:	e8920006 	ldm	r2, {r1, r2}
    6814:	e58d1010 	str	r1, [sp, #16]
    6818:	e58d2014 	str	r2, [sp, #20]
    681c:	e59d2060 	ldr	r2, [sp, #96]	; 0x60
    6820:	e355000e 	cmp	r5, #14
    6824:	c3a03000 	movgt	r3, #0
    6828:	d3a03001 	movle	r3, #1
    682c:	e3520000 	cmp	r2, #0
    6830:	b3a03000 	movlt	r3, #0
    6834:	e3530000 	cmp	r3, #0
    6838:	0a000071 	beq	6a04 <_dtoa_r+0xb58>
    683c:	e59f3590 	ldr	r3, [pc, #1424]	; 6dd4 <_dtoa_r+0xf28>
    6840:	e0833185 	add	r3, r3, r5, lsl #3
    6844:	e89300c0 	ldm	r3, {r6, r7}
    6848:	e58d6018 	str	r6, [sp, #24]
    684c:	e58d701c 	str	r7, [sp, #28]
    6850:	e59d7094 	ldr	r7, [sp, #148]	; 0x94
    6854:	e1a03fa7 	lsr	r3, r7, #31
    6858:	e3590000 	cmp	r9, #0
    685c:	c3a03000 	movgt	r3, #0
    6860:	d2033001 	andle	r3, r3, #1
    6864:	e3530000 	cmp	r3, #0
    6868:	0a00000e 	beq	68a8 <_dtoa_r+0x9fc>
    686c:	e3590000 	cmp	r9, #0
    6870:	1a00013b 	bne	6d64 <_dtoa_r+0xeb8>
    6874:	e3a02000 	mov	r2, #0
    6878:	e59f3568 	ldr	r3, [pc, #1384]	; 6de8 <_dtoa_r+0xf3c>
    687c:	e28d1018 	add	r1, sp, #24
    6880:	e8910003 	ldm	r1, {r0, r1}
    6884:	eb001567 	bl	be28 <__aeabi_dmul>
    6888:	e28d3010 	add	r3, sp, #16
    688c:	e893000c 	ldm	r3, {r2, r3}
    6890:	eb0016d0 	bl	c3d8 <__aeabi_dcmpge>
    6894:	e3500000 	cmp	r0, #0
    6898:	01a08009 	moveq	r8, r9
    689c:	01a07009 	moveq	r7, r9
    68a0:	0a000138 	beq	6d88 <_dtoa_r+0xedc>
    68a4:	ea000131 	b	6d70 <_dtoa_r+0xec4>
    68a8:	e59d8028 	ldr	r8, [sp, #40]	; 0x28
    68ac:	e1a0b005 	mov	fp, r5
    68b0:	e0889009 	add	r9, r8, r9
    68b4:	e1a05004 	mov	r5, r4
    68b8:	e28d3018 	add	r3, sp, #24
    68bc:	e893000c 	ldm	r3, {r2, r3}
    68c0:	e28d1010 	add	r1, sp, #16
    68c4:	e8910003 	ldm	r1, {r0, r1}
    68c8:	eb0015fa 	bl	c0b8 <__aeabi_ddiv>
    68cc:	eb0016cd 	bl	c408 <__aeabi_d2iz>
    68d0:	e1a07000 	mov	r7, r0
    68d4:	eb00151c 	bl	bd4c <__aeabi_i2d>
    68d8:	e28d3018 	add	r3, sp, #24
    68dc:	e893000c 	ldm	r3, {r2, r3}
    68e0:	eb001550 	bl	be28 <__aeabi_dmul>
    68e4:	e1a03001 	mov	r3, r1
    68e8:	e1a02000 	mov	r2, r0
    68ec:	e28d1010 	add	r1, sp, #16
    68f0:	e8910003 	ldm	r1, {r0, r1}
    68f4:	eb001446 	bl	ba14 <__aeabi_dsub>
    68f8:	e1a06008 	mov	r6, r8
    68fc:	e2873030 	add	r3, r7, #48	; 0x30
    6900:	e58d0010 	str	r0, [sp, #16]
    6904:	e58d1014 	str	r1, [sp, #20]
    6908:	e4c63001 	strb	r3, [r6], #1
    690c:	e1560009 	cmp	r6, r9
    6910:	e1a08006 	mov	r8, r6
    6914:	1a00002a 	bne	69c4 <_dtoa_r+0xb18>
    6918:	e1a04005 	mov	r4, r5
    691c:	e1a0500b 	mov	r5, fp
    6920:	e28dc010 	add	ip, sp, #16
    6924:	e89c1800 	ldm	ip, {fp, ip}
    6928:	e1a0300c 	mov	r3, ip
    692c:	e1a0200b 	mov	r2, fp
    6930:	eb001438 	bl	ba18 <__adddf3>
    6934:	e28d3018 	add	r3, sp, #24
    6938:	e893000c 	ldm	r3, {r2, r3}
    693c:	e1a08000 	mov	r8, r0
    6940:	e1a09001 	mov	r9, r1
    6944:	eb0016a9 	bl	c3f0 <__aeabi_dcmpgt>
    6948:	e3500000 	cmp	r0, #0
    694c:	1a000011 	bne	6998 <_dtoa_r+0xaec>
    6950:	e1a00008 	mov	r0, r8
    6954:	e1a01009 	mov	r1, r9
    6958:	e28d3018 	add	r3, sp, #24
    695c:	e893000c 	ldm	r3, {r2, r3}
    6960:	eb00168a 	bl	c390 <__aeabi_dcmpeq>
    6964:	e3500000 	cmp	r0, #0
    6968:	0a0001fd 	beq	7164 <_dtoa_r+0x12b8>
    696c:	e3170001 	tst	r7, #1
    6970:	1a000008 	bne	6998 <_dtoa_r+0xaec>
    6974:	ea0001fa 	b	7164 <_dtoa_r+0x12b8>
    6978:	e59dc028 	ldr	ip, [sp, #40]	; 0x28
    697c:	e152000c 	cmp	r2, ip
    6980:	1a000005 	bne	699c <_dtoa_r+0xaf0>
    6984:	e3a02030 	mov	r2, #48	; 0x30
    6988:	e2855001 	add	r5, r5, #1
    698c:	e5cc2000 	strb	r2, [ip]
    6990:	ea000007 	b	69b4 <_dtoa_r+0xb08>
    6994:	e59d503c 	ldr	r5, [sp, #60]	; 0x3c
    6998:	e1a02006 	mov	r2, r6
    699c:	e5521001 	ldrb	r1, [r2, #-1]
    69a0:	e2423001 	sub	r3, r2, #1
    69a4:	e3510039 	cmp	r1, #57	; 0x39
    69a8:	e1a06002 	mov	r6, r2
    69ac:	e1a02003 	mov	r2, r3
    69b0:	0afffff0 	beq	6978 <_dtoa_r+0xacc>
    69b4:	e5d32000 	ldrb	r2, [r3]
    69b8:	e2822001 	add	r2, r2, #1
    69bc:	e5c32000 	strb	r2, [r3]
    69c0:	ea0001e7 	b	7164 <_dtoa_r+0x12b8>
    69c4:	e3a02000 	mov	r2, #0
    69c8:	e59f3410 	ldr	r3, [pc, #1040]	; 6de0 <_dtoa_r+0xf34>
    69cc:	eb001515 	bl	be28 <__aeabi_dmul>
    69d0:	e3a02000 	mov	r2, #0
    69d4:	e3a03000 	mov	r3, #0
    69d8:	e58d0010 	str	r0, [sp, #16]
    69dc:	e58d1014 	str	r1, [sp, #20]
    69e0:	eb00166a 	bl	c390 <__aeabi_dcmpeq>
    69e4:	e3500000 	cmp	r0, #0
    69e8:	e3a04001 	mov	r4, #1
    69ec:	13a04000 	movne	r4, #0
    69f0:	e31400ff 	tst	r4, #255	; 0xff
    69f4:	1affffaf 	bne	68b8 <_dtoa_r+0xa0c>
    69f8:	e1a04005 	mov	r4, r5
    69fc:	e1a0500b 	mov	r5, fp
    6a00:	ea0001d7 	b	7164 <_dtoa_r+0x12b8>
    6a04:	e59d1038 	ldr	r1, [sp, #56]	; 0x38
    6a08:	e3510000 	cmp	r1, #0
    6a0c:	01a03008 	moveq	r3, r8
    6a10:	01a0600b 	moveq	r6, fp
    6a14:	059d7038 	ldreq	r7, [sp, #56]	; 0x38
    6a18:	0a000022 	beq	6aa8 <_dtoa_r+0xbfc>
    6a1c:	e59d6090 	ldr	r6, [sp, #144]	; 0x90
    6a20:	e3560001 	cmp	r6, #1
    6a24:	ca000008 	bgt	6a4c <_dtoa_r+0xba0>
    6a28:	e59d705c 	ldr	r7, [sp, #92]	; 0x5c
    6a2c:	e3570000 	cmp	r7, #0
    6a30:	059d2064 	ldreq	r2, [sp, #100]	; 0x64
    6a34:	12822e43 	addne	r2, r2, #1072	; 0x430
    6a38:	12822003 	addne	r2, r2, #3
    6a3c:	02622036 	rsbeq	r2, r2, #54	; 0x36
    6a40:	e1a03008 	mov	r3, r8
    6a44:	e1a0600b 	mov	r6, fp
    6a48:	ea00000c 	b	6a80 <_dtoa_r+0xbd4>
    6a4c:	e2491001 	sub	r1, r9, #1
    6a50:	e1580001 	cmp	r8, r1
    6a54:	b59dc040 	ldrlt	ip, [sp, #64]	; 0x40
    6a58:	b0681001 	rsblt	r1, r8, r1
    6a5c:	b08cc001 	addlt	ip, ip, r1
    6a60:	a0613008 	rsbge	r3, r1, r8
    6a64:	b58dc040 	strlt	ip, [sp, #64]	; 0x40
    6a68:	b0888001 	addlt	r8, r8, r1
    6a6c:	e3590000 	cmp	r9, #0
    6a70:	b069600b 	rsblt	r6, r9, fp
    6a74:	b3a02000 	movlt	r2, #0
    6a78:	a1a0600b 	movge	r6, fp
    6a7c:	a1a02009 	movge	r2, r9
    6a80:	e59d1018 	ldr	r1, [sp, #24]
    6a84:	e0811002 	add	r1, r1, r2
    6a88:	e58d1018 	str	r1, [sp, #24]
    6a8c:	e1a00004 	mov	r0, r4
    6a90:	e3a01001 	mov	r1, #1
    6a94:	e58d3008 	str	r3, [sp, #8]
    6a98:	e08bb002 	add	fp, fp, r2
    6a9c:	eb0006f5 	bl	8678 <__i2b>
    6aa0:	e59d3008 	ldr	r3, [sp, #8]
    6aa4:	e1a07000 	mov	r7, r0
    6aa8:	e59d2018 	ldr	r2, [sp, #24]
    6aac:	e3520000 	cmp	r2, #0
    6ab0:	c3560000 	cmpgt	r6, #0
    6ab4:	da000006 	ble	6ad4 <_dtoa_r+0xc28>
    6ab8:	e59dc018 	ldr	ip, [sp, #24]
    6abc:	e1520006 	cmp	r2, r6
    6ac0:	a1a02006 	movge	r2, r6
    6ac4:	e062c00c 	rsb	ip, r2, ip
    6ac8:	e58dc018 	str	ip, [sp, #24]
    6acc:	e062b00b 	rsb	fp, r2, fp
    6ad0:	e0626006 	rsb	r6, r2, r6
    6ad4:	e3580000 	cmp	r8, #0
    6ad8:	da000020 	ble	6b60 <_dtoa_r+0xcb4>
    6adc:	e59d1038 	ldr	r1, [sp, #56]	; 0x38
    6ae0:	e3510000 	cmp	r1, #0
    6ae4:	0a000018 	beq	6b4c <_dtoa_r+0xca0>
    6ae8:	e3530000 	cmp	r3, #0
    6aec:	da000011 	ble	6b38 <_dtoa_r+0xc8c>
    6af0:	e1a02003 	mov	r2, r3
    6af4:	e1a01007 	mov	r1, r7
    6af8:	e1a00004 	mov	r0, r4
    6afc:	e58d3008 	str	r3, [sp, #8]
    6b00:	eb00074f 	bl	8844 <__pow5mult>
    6b04:	e1a07000 	mov	r7, r0
    6b08:	e1a0200a 	mov	r2, sl
    6b0c:	e1a01007 	mov	r1, r7
    6b10:	e1a00004 	mov	r0, r4
    6b14:	eb0006e0 	bl	869c <__multiply>
    6b18:	e1a0100a 	mov	r1, sl
    6b1c:	e1a02000 	mov	r2, r0
    6b20:	e1a00004 	mov	r0, r4
    6b24:	e58d200c 	str	r2, [sp, #12]
    6b28:	eb00062e 	bl	83e8 <_Bfree>
    6b2c:	e59d200c 	ldr	r2, [sp, #12]
    6b30:	e59d3008 	ldr	r3, [sp, #8]
    6b34:	e1a0a002 	mov	sl, r2
    6b38:	e0582003 	subs	r2, r8, r3
    6b3c:	11a00004 	movne	r0, r4
    6b40:	11a0100a 	movne	r1, sl
    6b44:	0a000005 	beq	6b60 <_dtoa_r+0xcb4>
    6b48:	ea000002 	b	6b58 <_dtoa_r+0xcac>
    6b4c:	e1a00004 	mov	r0, r4
    6b50:	e1a0100a 	mov	r1, sl
    6b54:	e1a02008 	mov	r2, r8
    6b58:	eb000739 	bl	8844 <__pow5mult>
    6b5c:	e1a0a000 	mov	sl, r0
    6b60:	e1a00004 	mov	r0, r4
    6b64:	e3a01001 	mov	r1, #1
    6b68:	eb0006c2 	bl	8678 <__i2b>
    6b6c:	e59d2040 	ldr	r2, [sp, #64]	; 0x40
    6b70:	e3520000 	cmp	r2, #0
    6b74:	e1a08000 	mov	r8, r0
    6b78:	da000003 	ble	6b8c <_dtoa_r+0xce0>
    6b7c:	e1a01008 	mov	r1, r8
    6b80:	e1a00004 	mov	r0, r4
    6b84:	eb00072e 	bl	8844 <__pow5mult>
    6b88:	e1a08000 	mov	r8, r0
    6b8c:	e59d3090 	ldr	r3, [sp, #144]	; 0x90
    6b90:	e3530001 	cmp	r3, #1
    6b94:	c3a03000 	movgt	r3, #0
    6b98:	ca000016 	bgt	6bf8 <_dtoa_r+0xd4c>
    6b9c:	e59dc010 	ldr	ip, [sp, #16]
    6ba0:	e35c0000 	cmp	ip, #0
    6ba4:	13a0c000 	movne	ip, #0
    6ba8:	158dc020 	strne	ip, [sp, #32]
    6bac:	1a000012 	bne	6bfc <_dtoa_r+0xd50>
    6bb0:	e59d2014 	ldr	r2, [sp, #20]
    6bb4:	e3c234ff 	bic	r3, r2, #-16777216	; 0xff000000
    6bb8:	e3c3360f 	bic	r3, r3, #15728640	; 0xf00000
    6bbc:	e3530000 	cmp	r3, #0
    6bc0:	159d1010 	ldrne	r1, [sp, #16]
    6bc4:	158d1020 	strne	r1, [sp, #32]
    6bc8:	1a00000b 	bne	6bfc <_dtoa_r+0xd50>
    6bcc:	e59f31cc 	ldr	r3, [pc, #460]	; 6da0 <_dtoa_r+0xef4>
    6bd0:	e0023003 	and	r3, r2, r3
    6bd4:	e3530000 	cmp	r3, #0
    6bd8:	0a000006 	beq	6bf8 <_dtoa_r+0xd4c>
    6bdc:	e59d1018 	ldr	r1, [sp, #24]
    6be0:	e3a02001 	mov	r2, #1
    6be4:	e2811001 	add	r1, r1, #1
    6be8:	e28bb001 	add	fp, fp, #1
    6bec:	e58d1018 	str	r1, [sp, #24]
    6bf0:	e58d2020 	str	r2, [sp, #32]
    6bf4:	ea000000 	b	6bfc <_dtoa_r+0xd50>
    6bf8:	e58d3020 	str	r3, [sp, #32]
    6bfc:	e59d2040 	ldr	r2, [sp, #64]	; 0x40
    6c00:	e3520000 	cmp	r2, #0
    6c04:	03a03001 	moveq	r3, #1
    6c08:	0a000004 	beq	6c20 <_dtoa_r+0xd74>
    6c0c:	e5983010 	ldr	r3, [r8, #16]
    6c10:	e0883103 	add	r3, r8, r3, lsl #2
    6c14:	e5930010 	ldr	r0, [r3, #16]
    6c18:	eb00065c 	bl	8590 <__hi0bits>
    6c1c:	e2603020 	rsb	r3, r0, #32
    6c20:	e59dc018 	ldr	ip, [sp, #24]
    6c24:	e083300c 	add	r3, r3, ip
    6c28:	e213301f 	ands	r3, r3, #31
    6c2c:	0a000009 	beq	6c58 <_dtoa_r+0xdac>
    6c30:	e2633020 	rsb	r3, r3, #32
    6c34:	e3530004 	cmp	r3, #4
    6c38:	da000005 	ble	6c54 <_dtoa_r+0xda8>
    6c3c:	e2433004 	sub	r3, r3, #4
    6c40:	e08cc003 	add	ip, ip, r3
    6c44:	e08bb003 	add	fp, fp, r3
    6c48:	e0866003 	add	r6, r6, r3
    6c4c:	e58dc018 	str	ip, [sp, #24]
    6c50:	ea000006 	b	6c70 <_dtoa_r+0xdc4>
    6c54:	0a000005 	beq	6c70 <_dtoa_r+0xdc4>
    6c58:	e59d1018 	ldr	r1, [sp, #24]
    6c5c:	e283301c 	add	r3, r3, #28
    6c60:	e0811003 	add	r1, r1, r3
    6c64:	e58d1018 	str	r1, [sp, #24]
    6c68:	e08bb003 	add	fp, fp, r3
    6c6c:	e0866003 	add	r6, r6, r3
    6c70:	e35b0000 	cmp	fp, #0
    6c74:	da000004 	ble	6c8c <_dtoa_r+0xde0>
    6c78:	e1a0100a 	mov	r1, sl
    6c7c:	e1a00004 	mov	r0, r4
    6c80:	e1a0200b 	mov	r2, fp
    6c84:	eb000725 	bl	8920 <__lshift>
    6c88:	e1a0a000 	mov	sl, r0
    6c8c:	e59d2018 	ldr	r2, [sp, #24]
    6c90:	e3520000 	cmp	r2, #0
    6c94:	da000003 	ble	6ca8 <_dtoa_r+0xdfc>
    6c98:	e1a01008 	mov	r1, r8
    6c9c:	e1a00004 	mov	r0, r4
    6ca0:	eb00071e 	bl	8920 <__lshift>
    6ca4:	e1a08000 	mov	r8, r0
    6ca8:	e59d3044 	ldr	r3, [sp, #68]	; 0x44
    6cac:	e3530000 	cmp	r3, #0
    6cb0:	0a000015 	beq	6d0c <_dtoa_r+0xe60>
    6cb4:	e1a0000a 	mov	r0, sl
    6cb8:	e1a01008 	mov	r1, r8
    6cbc:	eb000750 	bl	8a04 <__mcmp>
    6cc0:	e3500000 	cmp	r0, #0
    6cc4:	aa000010 	bge	6d0c <_dtoa_r+0xe60>
    6cc8:	e1a0100a 	mov	r1, sl
    6ccc:	e1a00004 	mov	r0, r4
    6cd0:	e3a0200a 	mov	r2, #10
    6cd4:	e3a03000 	mov	r3, #0
    6cd8:	eb0005c9 	bl	8404 <__multadd>
    6cdc:	e59dc038 	ldr	ip, [sp, #56]	; 0x38
    6ce0:	e35c0000 	cmp	ip, #0
    6ce4:	e2455001 	sub	r5, r5, #1
    6ce8:	e1a0a000 	mov	sl, r0
    6cec:	0a000005 	beq	6d08 <_dtoa_r+0xe5c>
    6cf0:	e1a01007 	mov	r1, r7
    6cf4:	e1a00004 	mov	r0, r4
    6cf8:	e3a0200a 	mov	r2, #10
    6cfc:	e3a03000 	mov	r3, #0
    6d00:	eb0005bf 	bl	8404 <__multadd>
    6d04:	e1a07000 	mov	r7, r0
    6d08:	e59d902c 	ldr	r9, [sp, #44]	; 0x2c
    6d0c:	e59d1090 	ldr	r1, [sp, #144]	; 0x90
    6d10:	e3590000 	cmp	r9, #0
    6d14:	c3a03000 	movgt	r3, #0
    6d18:	d3a03001 	movle	r3, #1
    6d1c:	e3510002 	cmp	r1, #2
    6d20:	d3a03000 	movle	r3, #0
    6d24:	e3530000 	cmp	r3, #0
    6d28:	0a000030 	beq	6df0 <_dtoa_r+0xf44>
    6d2c:	e3590000 	cmp	r9, #0
    6d30:	1a000010 	bne	6d78 <_dtoa_r+0xecc>
    6d34:	e1a01008 	mov	r1, r8
    6d38:	e3a02005 	mov	r2, #5
    6d3c:	e1a03009 	mov	r3, r9
    6d40:	e1a00004 	mov	r0, r4
    6d44:	eb0005ae 	bl	8404 <__multadd>
    6d48:	e1a08000 	mov	r8, r0
    6d4c:	e1a01008 	mov	r1, r8
    6d50:	e1a0000a 	mov	r0, sl
    6d54:	eb00072a 	bl	8a04 <__mcmp>
    6d58:	e3500000 	cmp	r0, #0
    6d5c:	ca000009 	bgt	6d88 <_dtoa_r+0xedc>
    6d60:	ea000004 	b	6d78 <_dtoa_r+0xecc>
    6d64:	e3a08000 	mov	r8, #0
    6d68:	e1a07008 	mov	r7, r8
    6d6c:	ea000001 	b	6d78 <_dtoa_r+0xecc>
    6d70:	e1a08009 	mov	r8, r9
    6d74:	e1a07009 	mov	r7, r9
    6d78:	e59d2094 	ldr	r2, [sp, #148]	; 0x94
    6d7c:	e59d6028 	ldr	r6, [sp, #40]	; 0x28
    6d80:	e1e05002 	mvn	r5, r2
    6d84:	ea000003 	b	6d98 <_dtoa_r+0xeec>
    6d88:	e59d6028 	ldr	r6, [sp, #40]	; 0x28
    6d8c:	e3a03031 	mov	r3, #49	; 0x31
    6d90:	e4c63001 	strb	r3, [r6], #1
    6d94:	e2855001 	add	r5, r5, #1
    6d98:	e3a09000 	mov	r9, #0
    6d9c:	ea0000e1 	b	7128 <_dtoa_r+0x127c>
    6da0:	7ff00000 	.word	0x7ff00000
    6da4:	0000270f 	.word	0x0000270f
    6da8:	0000cec9 	.word	0x0000cec9
    6dac:	0000cec0 	.word	0x0000cec0
    6db0:	0000ceae 	.word	0x0000ceae
    6db4:	0000ceaf 	.word	0x0000ceaf
    6db8:	3ff80000 	.word	0x3ff80000
    6dbc:	636f4361 	.word	0x636f4361
    6dc0:	3fd287a7 	.word	0x3fd287a7
    6dc4:	8b60c8b3 	.word	0x8b60c8b3
    6dc8:	3fc68a28 	.word	0x3fc68a28
    6dcc:	509f79fb 	.word	0x509f79fb
    6dd0:	3fd34413 	.word	0x3fd34413
    6dd4:	0000cee0 	.word	0x0000cee0
    6dd8:	0000cfa8 	.word	0x0000cfa8
    6ddc:	3ff00000 	.word	0x3ff00000
    6de0:	40240000 	.word	0x40240000
    6de4:	401c0000 	.word	0x401c0000
    6de8:	40140000 	.word	0x40140000
    6dec:	3fe00000 	.word	0x3fe00000
    6df0:	e59d3038 	ldr	r3, [sp, #56]	; 0x38
    6df4:	e3530000 	cmp	r3, #0
    6df8:	0a00008e 	beq	7038 <_dtoa_r+0x118c>
    6dfc:	e3560000 	cmp	r6, #0
    6e00:	da000004 	ble	6e18 <_dtoa_r+0xf6c>
    6e04:	e1a01007 	mov	r1, r7
    6e08:	e1a00004 	mov	r0, r4
    6e0c:	e1a02006 	mov	r2, r6
    6e10:	eb0006c2 	bl	8920 <__lshift>
    6e14:	e1a07000 	mov	r7, r0
    6e18:	e59d6020 	ldr	r6, [sp, #32]
    6e1c:	e3560000 	cmp	r6, #0
    6e20:	01a00007 	moveq	r0, r7
    6e24:	0a00000d 	beq	6e60 <_dtoa_r+0xfb4>
    6e28:	e5971004 	ldr	r1, [r7, #4]
    6e2c:	e1a00004 	mov	r0, r4
    6e30:	eb00054c 	bl	8368 <_Balloc>
    6e34:	e5972010 	ldr	r2, [r7, #16]
    6e38:	e2822002 	add	r2, r2, #2
    6e3c:	e1a06000 	mov	r6, r0
    6e40:	e287100c 	add	r1, r7, #12
    6e44:	e1a02102 	lsl	r2, r2, #2
    6e48:	e280000c 	add	r0, r0, #12
    6e4c:	eb000534 	bl	8324 <memcpy>
    6e50:	e1a00004 	mov	r0, r4
    6e54:	e1a01006 	mov	r1, r6
    6e58:	e3a02001 	mov	r2, #1
    6e5c:	eb0006af 	bl	8920 <__lshift>
    6e60:	e59d6028 	ldr	r6, [sp, #40]	; 0x28
    6e64:	e58d5018 	str	r5, [sp, #24]
    6e68:	e0899006 	add	r9, r9, r6
    6e6c:	e58d9038 	str	r9, [sp, #56]	; 0x38
    6e70:	e1a09007 	mov	r9, r7
    6e74:	e1a07000 	mov	r7, r0
    6e78:	e1a01008 	mov	r1, r8
    6e7c:	e1a0000a 	mov	r0, sl
    6e80:	ebfffb9e 	bl	5d00 <quorem>
    6e84:	e1a01009 	mov	r1, r9
    6e88:	e280b030 	add	fp, r0, #48	; 0x30
    6e8c:	e1a0000a 	mov	r0, sl
    6e90:	eb0006db 	bl	8a04 <__mcmp>
    6e94:	e1a02007 	mov	r2, r7
    6e98:	e58d002c 	str	r0, [sp, #44]	; 0x2c
    6e9c:	e1a01008 	mov	r1, r8
    6ea0:	e1a00004 	mov	r0, r4
    6ea4:	eb0006f0 	bl	8a6c <__mdiff>
    6ea8:	e590200c 	ldr	r2, [r0, #12]
    6eac:	e3520000 	cmp	r2, #0
    6eb0:	e1a03000 	mov	r3, r0
    6eb4:	13a05001 	movne	r5, #1
    6eb8:	1a000005 	bne	6ed4 <_dtoa_r+0x1028>
    6ebc:	e1a01003 	mov	r1, r3
    6ec0:	e1a0000a 	mov	r0, sl
    6ec4:	e58d3008 	str	r3, [sp, #8]
    6ec8:	eb0006cd 	bl	8a04 <__mcmp>
    6ecc:	e59d3008 	ldr	r3, [sp, #8]
    6ed0:	e1a05000 	mov	r5, r0
    6ed4:	e1a00004 	mov	r0, r4
    6ed8:	e1a01003 	mov	r1, r3
    6edc:	eb000541 	bl	83e8 <_Bfree>
    6ee0:	e59dc090 	ldr	ip, [sp, #144]	; 0x90
    6ee4:	e195c00c 	orrs	ip, r5, ip
    6ee8:	1a00000a 	bne	6f18 <_dtoa_r+0x106c>
    6eec:	e59d1010 	ldr	r1, [sp, #16]
    6ef0:	e2013001 	and	r3, r1, #1
    6ef4:	e3530000 	cmp	r3, #0
    6ef8:	1a000006 	bne	6f18 <_dtoa_r+0x106c>
    6efc:	e35b0039 	cmp	fp, #57	; 0x39
    6f00:	e59d5018 	ldr	r5, [sp, #24]
    6f04:	0a000023 	beq	6f98 <_dtoa_r+0x10ec>
    6f08:	e59d202c 	ldr	r2, [sp, #44]	; 0x2c
    6f0c:	e3520000 	cmp	r2, #0
    6f10:	ca000024 	bgt	6fa8 <_dtoa_r+0x10fc>
    6f14:	ea000024 	b	6fac <_dtoa_r+0x1100>
    6f18:	e59d302c 	ldr	r3, [sp, #44]	; 0x2c
    6f1c:	e3530000 	cmp	r3, #0
    6f20:	ba000006 	blt	6f40 <_dtoa_r+0x1094>
    6f24:	e59dc090 	ldr	ip, [sp, #144]	; 0x90
    6f28:	e193300c 	orrs	r3, r3, ip
    6f2c:	1a000014 	bne	6f84 <_dtoa_r+0x10d8>
    6f30:	e59d1010 	ldr	r1, [sp, #16]
    6f34:	e2013001 	and	r3, r1, #1
    6f38:	e3530000 	cmp	r3, #0
    6f3c:	1a000010 	bne	6f84 <_dtoa_r+0x10d8>
    6f40:	e1a02005 	mov	r2, r5
    6f44:	e3520000 	cmp	r2, #0
    6f48:	e59d5018 	ldr	r5, [sp, #24]
    6f4c:	da000016 	ble	6fac <_dtoa_r+0x1100>
    6f50:	e1a0100a 	mov	r1, sl
    6f54:	e3a02001 	mov	r2, #1
    6f58:	e1a00004 	mov	r0, r4
    6f5c:	eb00066f 	bl	8920 <__lshift>
    6f60:	e1a01008 	mov	r1, r8
    6f64:	e1a0a000 	mov	sl, r0
    6f68:	eb0006a5 	bl	8a04 <__mcmp>
    6f6c:	e3500000 	cmp	r0, #0
    6f70:	ca000006 	bgt	6f90 <_dtoa_r+0x10e4>
    6f74:	1a00000c 	bne	6fac <_dtoa_r+0x1100>
    6f78:	e31b0001 	tst	fp, #1
    6f7c:	0a00000a 	beq	6fac <_dtoa_r+0x1100>
    6f80:	ea000002 	b	6f90 <_dtoa_r+0x10e4>
    6f84:	e3550000 	cmp	r5, #0
    6f88:	da000009 	ble	6fb4 <_dtoa_r+0x1108>
    6f8c:	e59d5018 	ldr	r5, [sp, #24]
    6f90:	e35b0039 	cmp	fp, #57	; 0x39
    6f94:	1a000003 	bne	6fa8 <_dtoa_r+0x10fc>
    6f98:	e1a03006 	mov	r3, r6
    6f9c:	e3a02039 	mov	r2, #57	; 0x39
    6fa0:	e4c32001 	strb	r2, [r3], #1
    6fa4:	ea000053 	b	70f8 <_dtoa_r+0x124c>
    6fa8:	e28bb001 	add	fp, fp, #1
    6fac:	e4c6b001 	strb	fp, [r6], #1
    6fb0:	ea00005c 	b	7128 <_dtoa_r+0x127c>
    6fb4:	e4c6b001 	strb	fp, [r6], #1
    6fb8:	e59dc038 	ldr	ip, [sp, #56]	; 0x38
    6fbc:	e156000c 	cmp	r6, ip
    6fc0:	e1a03006 	mov	r3, r6
    6fc4:	0a000035 	beq	70a0 <_dtoa_r+0x11f4>
    6fc8:	e1a0100a 	mov	r1, sl
    6fcc:	e1a00004 	mov	r0, r4
    6fd0:	e3a0200a 	mov	r2, #10
    6fd4:	e3a03000 	mov	r3, #0
    6fd8:	eb000509 	bl	8404 <__multadd>
    6fdc:	e1590007 	cmp	r9, r7
    6fe0:	e1a0a000 	mov	sl, r0
    6fe4:	1a000006 	bne	7004 <_dtoa_r+0x1158>
    6fe8:	e1a01009 	mov	r1, r9
    6fec:	e1a00004 	mov	r0, r4
    6ff0:	e3a0200a 	mov	r2, #10
    6ff4:	e3a03000 	mov	r3, #0
    6ff8:	eb000501 	bl	8404 <__multadd>
    6ffc:	e1a09000 	mov	r9, r0
    7000:	ea00000a 	b	7030 <_dtoa_r+0x1184>
    7004:	e1a01009 	mov	r1, r9
    7008:	e3a0200a 	mov	r2, #10
    700c:	e3a03000 	mov	r3, #0
    7010:	e1a00004 	mov	r0, r4
    7014:	eb0004fa 	bl	8404 <__multadd>
    7018:	e1a01007 	mov	r1, r7
    701c:	e1a09000 	mov	r9, r0
    7020:	e3a0200a 	mov	r2, #10
    7024:	e1a00004 	mov	r0, r4
    7028:	e3a03000 	mov	r3, #0
    702c:	eb0004f4 	bl	8404 <__multadd>
    7030:	e1a07000 	mov	r7, r0
    7034:	eaffff8f 	b	6e78 <_dtoa_r+0xfcc>
    7038:	e3a0c001 	mov	ip, #1
    703c:	e59d6028 	ldr	r6, [sp, #40]	; 0x28
    7040:	e1a0b00a 	mov	fp, sl
    7044:	e1a0a005 	mov	sl, r5
    7048:	e1a0500c 	mov	r5, ip
    704c:	e1a0000b 	mov	r0, fp
    7050:	e1a01008 	mov	r1, r8
    7054:	ebfffb29 	bl	5d00 <quorem>
    7058:	e2800030 	add	r0, r0, #48	; 0x30
    705c:	e4c60001 	strb	r0, [r6], #1
    7060:	e1550009 	cmp	r5, r9
    7064:	e1a03006 	mov	r3, r6
    7068:	aa000007 	bge	708c <_dtoa_r+0x11e0>
    706c:	e1a0100b 	mov	r1, fp
    7070:	e1a00004 	mov	r0, r4
    7074:	e3a0200a 	mov	r2, #10
    7078:	e3a03000 	mov	r3, #0
    707c:	eb0004e0 	bl	8404 <__multadd>
    7080:	e2855001 	add	r5, r5, #1
    7084:	e1a0b000 	mov	fp, r0
    7088:	eaffffef 	b	704c <_dtoa_r+0x11a0>
    708c:	e1a0500a 	mov	r5, sl
    7090:	e3a09000 	mov	r9, #0
    7094:	e1a0a00b 	mov	sl, fp
    7098:	e1a0b000 	mov	fp, r0
    709c:	ea000000 	b	70a4 <_dtoa_r+0x11f8>
    70a0:	e59d5018 	ldr	r5, [sp, #24]
    70a4:	e1a0100a 	mov	r1, sl
    70a8:	e3a02001 	mov	r2, #1
    70ac:	e1a00004 	mov	r0, r4
    70b0:	e58d3008 	str	r3, [sp, #8]
    70b4:	eb000619 	bl	8920 <__lshift>
    70b8:	e1a01008 	mov	r1, r8
    70bc:	e1a0a000 	mov	sl, r0
    70c0:	eb00064f 	bl	8a04 <__mcmp>
    70c4:	e3500000 	cmp	r0, #0
    70c8:	e59d3008 	ldr	r3, [sp, #8]
    70cc:	ca000009 	bgt	70f8 <_dtoa_r+0x124c>
    70d0:	1a000010 	bne	7118 <_dtoa_r+0x126c>
    70d4:	e31b0001 	tst	fp, #1
    70d8:	1a000006 	bne	70f8 <_dtoa_r+0x124c>
    70dc:	ea00000d 	b	7118 <_dtoa_r+0x126c>
    70e0:	e59d1028 	ldr	r1, [sp, #40]	; 0x28
    70e4:	e1530001 	cmp	r3, r1
    70e8:	03a03031 	moveq	r3, #49	; 0x31
    70ec:	02855001 	addeq	r5, r5, #1
    70f0:	05c13000 	strbeq	r3, [r1]
    70f4:	0a00000b 	beq	7128 <_dtoa_r+0x127c>
    70f8:	e5532001 	ldrb	r2, [r3, #-1]
    70fc:	e3520039 	cmp	r2, #57	; 0x39
    7100:	e1a06003 	mov	r6, r3
    7104:	e2433001 	sub	r3, r3, #1
    7108:	0afffff4 	beq	70e0 <_dtoa_r+0x1234>
    710c:	e2822001 	add	r2, r2, #1
    7110:	e5c32000 	strb	r2, [r3]
    7114:	ea000003 	b	7128 <_dtoa_r+0x127c>
    7118:	e1a06003 	mov	r6, r3
    711c:	e5732001 	ldrb	r2, [r3, #-1]!
    7120:	e3520030 	cmp	r2, #48	; 0x30
    7124:	0afffffb 	beq	7118 <_dtoa_r+0x126c>
    7128:	e1a00004 	mov	r0, r4
    712c:	e1a01008 	mov	r1, r8
    7130:	eb0004ac 	bl	83e8 <_Bfree>
    7134:	e3570000 	cmp	r7, #0
    7138:	0a000009 	beq	7164 <_dtoa_r+0x12b8>
    713c:	e1590007 	cmp	r9, r7
    7140:	13590000 	cmpne	r9, #0
    7144:	11a00004 	movne	r0, r4
    7148:	11a01009 	movne	r1, r9
    714c:	1b0004a5 	blne	83e8 <_Bfree>
    7150:	e1a00004 	mov	r0, r4
    7154:	e1a01007 	mov	r1, r7
    7158:	eb0004a2 	bl	83e8 <_Bfree>
    715c:	ea000000 	b	7164 <_dtoa_r+0x12b8>
    7160:	e59d503c 	ldr	r5, [sp, #60]	; 0x3c
    7164:	e1a00004 	mov	r0, r4
    7168:	e1a0100a 	mov	r1, sl
    716c:	eb00049d 	bl	83e8 <_Bfree>
    7170:	e3a03000 	mov	r3, #0
    7174:	e5c63000 	strb	r3, [r6]
    7178:	e59d30a0 	ldr	r3, [sp, #160]	; 0xa0
    717c:	e59d2098 	ldr	r2, [sp, #152]	; 0x98
    7180:	e2855001 	add	r5, r5, #1
    7184:	e3530000 	cmp	r3, #0
    7188:	e5825000 	str	r5, [r2]
    718c:	e59d0028 	ldr	r0, [sp, #40]	; 0x28
    7190:	15836000 	strne	r6, [r3]
    7194:	e28dd06c 	add	sp, sp, #108	; 0x6c
    7198:	e8bd4ff0 	pop	{r4, r5, r6, r7, r8, r9, sl, fp, lr}
    719c:	e12fff1e 	bx	lr

000071a0 <_fflush_r>:
    71a0:	e92d40f8 	push	{r3, r4, r5, r6, r7, lr}
    71a4:	e2505000 	subs	r5, r0, #0
    71a8:	e1a04001 	mov	r4, r1
    71ac:	0a000002 	beq	71bc <_fflush_r+0x1c>
    71b0:	e5953038 	ldr	r3, [r5, #56]	; 0x38
    71b4:	e3530000 	cmp	r3, #0
    71b8:	0b0000cf 	bleq	74fc <__sinit>
    71bc:	e1d460bc 	ldrh	r6, [r4, #12]
    71c0:	e3560000 	cmp	r6, #0
    71c4:	0a00007a 	beq	73b4 <_fflush_r+0x214>
    71c8:	e1a03806 	lsl	r3, r6, #16
    71cc:	e1a03843 	asr	r3, r3, #16
    71d0:	e2132008 	ands	r2, r3, #8
    71d4:	1a000058 	bne	733c <_fflush_r+0x19c>
    71d8:	e5941004 	ldr	r1, [r4, #4]
    71dc:	e3863b02 	orr	r3, r6, #2048	; 0x800
    71e0:	e3510000 	cmp	r1, #0
    71e4:	e1c430bc 	strh	r3, [r4, #12]
    71e8:	ca000003 	bgt	71fc <_fflush_r+0x5c>
    71ec:	e594103c 	ldr	r1, [r4, #60]	; 0x3c
    71f0:	e3510000 	cmp	r1, #0
    71f4:	d1a06002 	movle	r6, r2
    71f8:	da00006d 	ble	73b4 <_fflush_r+0x214>
    71fc:	e594c028 	ldr	ip, [r4, #40]	; 0x28
    7200:	e35c0000 	cmp	ip, #0
    7204:	01a0600c 	moveq	r6, ip
    7208:	0a000069 	beq	73b4 <_fflush_r+0x214>
    720c:	e3a02000 	mov	r2, #0
    7210:	e2136a01 	ands	r6, r3, #4096	; 0x1000
    7214:	e5957000 	ldr	r7, [r5]
    7218:	e5852000 	str	r2, [r5]
    721c:	15942050 	ldrne	r2, [r4, #80]	; 0x50
    7220:	1a000013 	bne	7274 <_fflush_r+0xd4>
    7224:	e1a02006 	mov	r2, r6
    7228:	e1a00005 	mov	r0, r5
    722c:	e594101c 	ldr	r1, [r4, #28]
    7230:	e3a03001 	mov	r3, #1
    7234:	e1a0e00f 	mov	lr, pc
    7238:	e12fff1c 	bx	ip
    723c:	e3700001 	cmn	r0, #1
    7240:	e1a02000 	mov	r2, r0
    7244:	1a00000a 	bne	7274 <_fflush_r+0xd4>
    7248:	e5953000 	ldr	r3, [r5]
    724c:	e3530000 	cmp	r3, #0
    7250:	0a000007 	beq	7274 <_fflush_r+0xd4>
    7254:	e353001d 	cmp	r3, #29
    7258:	13530016 	cmpne	r3, #22
    725c:	11d430bc 	ldrhne	r3, [r4, #12]
    7260:	13833040 	orrne	r3, r3, #64	; 0x40
    7264:	05857000 	streq	r7, [r5]
    7268:	11c430bc 	strhne	r3, [r4, #12]
    726c:	11a06000 	movne	r6, r0
    7270:	ea00004f 	b	73b4 <_fflush_r+0x214>
    7274:	e1d430bc 	ldrh	r3, [r4, #12]
    7278:	e3130004 	tst	r3, #4
    727c:	0a000005 	beq	7298 <_fflush_r+0xf8>
    7280:	e5943004 	ldr	r3, [r4, #4]
    7284:	e0632002 	rsb	r2, r3, r2
    7288:	e5943030 	ldr	r3, [r4, #48]	; 0x30
    728c:	e3530000 	cmp	r3, #0
    7290:	1594303c 	ldrne	r3, [r4, #60]	; 0x3c
    7294:	10632002 	rsbne	r2, r3, r2
    7298:	e1a00005 	mov	r0, r5
    729c:	e594101c 	ldr	r1, [r4, #28]
    72a0:	e3a03000 	mov	r3, #0
    72a4:	e594c028 	ldr	ip, [r4, #40]	; 0x28
    72a8:	e1a0e00f 	mov	lr, pc
    72ac:	e12fff1c 	bx	ip
    72b0:	e3700001 	cmn	r0, #1
    72b4:	1a000005 	bne	72d0 <_fflush_r+0x130>
    72b8:	e5953000 	ldr	r3, [r5]
    72bc:	e353001d 	cmp	r3, #29
    72c0:	8a000031 	bhi	738c <_fflush_r+0x1ec>
    72c4:	e59f20f4 	ldr	r2, [pc, #244]	; 73c0 <_fflush_r+0x220>
    72c8:	e1b02312 	lsls	r2, r2, r3
    72cc:	5a00002e 	bpl	738c <_fflush_r+0x1ec>
    72d0:	e1d430bc 	ldrh	r3, [r4, #12]
    72d4:	e3a02000 	mov	r2, #0
    72d8:	e3c33b02 	bic	r3, r3, #2048	; 0x800
    72dc:	e5842004 	str	r2, [r4, #4]
    72e0:	e5942010 	ldr	r2, [r4, #16]
    72e4:	e3130a01 	tst	r3, #4096	; 0x1000
    72e8:	e1c430bc 	strh	r3, [r4, #12]
    72ec:	e5842000 	str	r2, [r4]
    72f0:	0a000005 	beq	730c <_fflush_r+0x16c>
    72f4:	e3700001 	cmn	r0, #1
    72f8:	1a000002 	bne	7308 <_fflush_r+0x168>
    72fc:	e5953000 	ldr	r3, [r5]
    7300:	e3530000 	cmp	r3, #0
    7304:	1a000000 	bne	730c <_fflush_r+0x16c>
    7308:	e5840050 	str	r0, [r4, #80]	; 0x50
    730c:	e5941030 	ldr	r1, [r4, #48]	; 0x30
    7310:	e3510000 	cmp	r1, #0
    7314:	e5857000 	str	r7, [r5]
    7318:	01a06001 	moveq	r6, r1
    731c:	0a000024 	beq	73b4 <_fflush_r+0x214>
    7320:	e2843040 	add	r3, r4, #64	; 0x40
    7324:	e1510003 	cmp	r1, r3
    7328:	11a00005 	movne	r0, r5
    732c:	1b00011a 	blne	779c <_free_r>
    7330:	e3a06000 	mov	r6, #0
    7334:	e5846030 	str	r6, [r4, #48]	; 0x30
    7338:	ea00001d 	b	73b4 <_fflush_r+0x214>
    733c:	e5946010 	ldr	r6, [r4, #16]
    7340:	e3560000 	cmp	r6, #0
    7344:	0a00001a 	beq	73b4 <_fflush_r+0x214>
    7348:	e3130003 	tst	r3, #3
    734c:	e5947000 	ldr	r7, [r4]
    7350:	05943014 	ldreq	r3, [r4, #20]
    7354:	13a03000 	movne	r3, #0
    7358:	e0667007 	rsb	r7, r6, r7
    735c:	e5846000 	str	r6, [r4]
    7360:	e5843008 	str	r3, [r4, #8]
    7364:	ea00000f 	b	73a8 <_fflush_r+0x208>
    7368:	e1a00005 	mov	r0, r5
    736c:	e594101c 	ldr	r1, [r4, #28]
    7370:	e1a02006 	mov	r2, r6
    7374:	e1a03007 	mov	r3, r7
    7378:	e594c024 	ldr	ip, [r4, #36]	; 0x24
    737c:	e1a0e00f 	mov	lr, pc
    7380:	e12fff1c 	bx	ip
    7384:	e3500000 	cmp	r0, #0
    7388:	ca000004 	bgt	73a0 <_fflush_r+0x200>
    738c:	e1d430bc 	ldrh	r3, [r4, #12]
    7390:	e3833040 	orr	r3, r3, #64	; 0x40
    7394:	e1c430bc 	strh	r3, [r4, #12]
    7398:	e3e06000 	mvn	r6, #0
    739c:	ea000004 	b	73b4 <_fflush_r+0x214>
    73a0:	e0866000 	add	r6, r6, r0
    73a4:	e0607007 	rsb	r7, r0, r7
    73a8:	e3570000 	cmp	r7, #0
    73ac:	caffffed 	bgt	7368 <_fflush_r+0x1c8>
    73b0:	e3a06000 	mov	r6, #0
    73b4:	e1a00006 	mov	r0, r6
    73b8:	e8bd40f8 	pop	{r3, r4, r5, r6, r7, lr}
    73bc:	e12fff1e 	bx	lr
    73c0:	80000204 	.word	0x80000204

000073c4 <fflush>:
    73c4:	e2501000 	subs	r1, r0, #0
    73c8:	e92d4010 	push	{r4, lr}
    73cc:	1a000005 	bne	73e8 <fflush+0x24>
    73d0:	e59f3020 	ldr	r3, [pc, #32]	; 73f8 <fflush+0x34>
    73d4:	e59f1020 	ldr	r1, [pc, #32]	; 73fc <fflush+0x38>
    73d8:	e5930000 	ldr	r0, [r3]
    73dc:	eb00019e 	bl	7a5c <_fwalk_reent>
    73e0:	e8bd4010 	pop	{r4, lr}
    73e4:	e12fff1e 	bx	lr
    73e8:	e59f3010 	ldr	r3, [pc, #16]	; 7400 <fflush+0x3c>
    73ec:	e5930000 	ldr	r0, [r3]
    73f0:	e8bd4010 	pop	{r4, lr}
    73f4:	eaffff69 	b	71a0 <_fflush_r>
    73f8:	0000ced0 	.word	0x0000ced0
    73fc:	000071a0 	.word	0x000071a0
    7400:	40000428 	.word	0x40000428

00007404 <__fp_lock>:
    7404:	e3a00000 	mov	r0, #0
    7408:	e12fff1e 	bx	lr

0000740c <__fp_unlock>:
    740c:	e3a00000 	mov	r0, #0
    7410:	e12fff1e 	bx	lr

00007414 <_cleanup_r>:
    7414:	e92d4008 	push	{r3, lr}
    7418:	e59f1008 	ldr	r1, [pc, #8]	; 7428 <_cleanup_r+0x14>
    741c:	eb000170 	bl	79e4 <_fwalk>
    7420:	e8bd4008 	pop	{r3, lr}
    7424:	e12fff1e 	bx	lr
    7428:	0000a1bc 	.word	0x0000a1bc

0000742c <std.clone.0>:
    742c:	e3a03000 	mov	r3, #0
    7430:	e92d4010 	push	{r4, lr}
    7434:	e1a04000 	mov	r4, r0
    7438:	e5803000 	str	r3, [r0]
    743c:	e5803004 	str	r3, [r0, #4]
    7440:	e5803008 	str	r3, [r0, #8]
    7444:	e1c010bc 	strh	r1, [r0, #12]
    7448:	e5803064 	str	r3, [r0, #100]	; 0x64
    744c:	e1c020be 	strh	r2, [r0, #14]
    7450:	e5803010 	str	r3, [r0, #16]
    7454:	e5803014 	str	r3, [r0, #20]
    7458:	e5803018 	str	r3, [r0, #24]
    745c:	e1a01003 	mov	r1, r3
    7460:	e280005c 	add	r0, r0, #92	; 0x5c
    7464:	e3a02008 	mov	r2, #8
    7468:	eb0003b5 	bl	8344 <memset>
    746c:	e59f3024 	ldr	r3, [pc, #36]	; 7498 <std.clone.0+0x6c>
    7470:	e5843020 	str	r3, [r4, #32]
    7474:	e59f3020 	ldr	r3, [pc, #32]	; 749c <std.clone.0+0x70>
    7478:	e5843024 	str	r3, [r4, #36]	; 0x24
    747c:	e59f301c 	ldr	r3, [pc, #28]	; 74a0 <std.clone.0+0x74>
    7480:	e5843028 	str	r3, [r4, #40]	; 0x28
    7484:	e59f3018 	ldr	r3, [pc, #24]	; 74a4 <std.clone.0+0x78>
    7488:	e584401c 	str	r4, [r4, #28]
    748c:	e584302c 	str	r3, [r4, #44]	; 0x2c
    7490:	e8bd4010 	pop	{r4, lr}
    7494:	e12fff1e 	bx	lr
    7498:	00008ff8 	.word	0x00008ff8
    749c:	00009034 	.word	0x00009034
    74a0:	00009088 	.word	0x00009088
    74a4:	000090bc 	.word	0x000090bc

000074a8 <__sfmoreglue>:
    74a8:	e92d4070 	push	{r4, r5, r6, lr}
    74ac:	e3a05068 	mov	r5, #104	; 0x68
    74b0:	e0050591 	mul	r5, r1, r5
    74b4:	e1a06001 	mov	r6, r1
    74b8:	e285100c 	add	r1, r5, #12
    74bc:	eb00020f 	bl	7d00 <_malloc_r>
    74c0:	e2504000 	subs	r4, r0, #0
    74c4:	0a000005 	beq	74e0 <__sfmoreglue+0x38>
    74c8:	e284000c 	add	r0, r4, #12
    74cc:	e3a01000 	mov	r1, #0
    74d0:	e8840042 	stm	r4, {r1, r6}
    74d4:	e5840008 	str	r0, [r4, #8]
    74d8:	e1a02005 	mov	r2, r5
    74dc:	eb000398 	bl	8344 <memset>
    74e0:	e1a00004 	mov	r0, r4
    74e4:	e8bd4070 	pop	{r4, r5, r6, lr}
    74e8:	e12fff1e 	bx	lr

000074ec <_cleanup>:
    74ec:	e59f3004 	ldr	r3, [pc, #4]	; 74f8 <_cleanup+0xc>
    74f0:	e5930000 	ldr	r0, [r3]
    74f4:	eaffffc6 	b	7414 <_cleanup_r>
    74f8:	0000ced0 	.word	0x0000ced0

000074fc <__sinit>:
    74fc:	e5902038 	ldr	r2, [r0, #56]	; 0x38
    7500:	e3520000 	cmp	r2, #0
    7504:	e92d4070 	push	{r4, r5, r6, lr}
    7508:	e1a04000 	mov	r4, r0
    750c:	1a000014 	bne	7564 <__sinit+0x68>
    7510:	e59f3054 	ldr	r3, [pc, #84]	; 756c <__sinit+0x70>
    7514:	e580303c 	str	r3, [r0, #60]	; 0x3c
    7518:	e3a03003 	mov	r3, #3
    751c:	e3a05001 	mov	r5, #1
    7520:	e58032e4 	str	r3, [r0, #740]	; 0x2e4
    7524:	e2803fbb 	add	r3, r0, #748	; 0x2ec
    7528:	e58032e8 	str	r3, [r0, #744]	; 0x2e8
    752c:	e5805038 	str	r5, [r0, #56]	; 0x38
    7530:	e58022e0 	str	r2, [r0, #736]	; 0x2e0
    7534:	e3a01004 	mov	r1, #4
    7538:	e5900004 	ldr	r0, [r0, #4]
    753c:	ebffffba 	bl	742c <std.clone.0>
    7540:	e5940008 	ldr	r0, [r4, #8]
    7544:	e1a02005 	mov	r2, r5
    7548:	e3a01009 	mov	r1, #9
    754c:	ebffffb6 	bl	742c <std.clone.0>
    7550:	e594000c 	ldr	r0, [r4, #12]
    7554:	e3a01012 	mov	r1, #18
    7558:	e3a02002 	mov	r2, #2
    755c:	e8bd4070 	pop	{r4, r5, r6, lr}
    7560:	eaffffb1 	b	742c <std.clone.0>
    7564:	e8bd4070 	pop	{r4, r5, r6, lr}
    7568:	e12fff1e 	bx	lr
    756c:	00007414 	.word	0x00007414

00007570 <__sfp>:
    7570:	e92d40f8 	push	{r3, r4, r5, r6, r7, lr}
    7574:	e59f30cc 	ldr	r3, [pc, #204]	; 7648 <__sfp+0xd8>
    7578:	e5936000 	ldr	r6, [r3]
    757c:	e5963038 	ldr	r3, [r6, #56]	; 0x38
    7580:	e3530000 	cmp	r3, #0
    7584:	e1a07000 	mov	r7, r0
    7588:	01a00006 	moveq	r0, r6
    758c:	0bffffda 	bleq	74fc <__sinit>
    7590:	e2866e2e 	add	r6, r6, #736	; 0x2e0
    7594:	e9960018 	ldmib	r6, {r3, r4}
    7598:	ea000003 	b	75ac <__sfp+0x3c>
    759c:	e1d450fc 	ldrsh	r5, [r4, #12]
    75a0:	e3550000 	cmp	r5, #0
    75a4:	0a000011 	beq	75f0 <__sfp+0x80>
    75a8:	e2844068 	add	r4, r4, #104	; 0x68
    75ac:	e2533001 	subs	r3, r3, #1
    75b0:	5afffff9 	bpl	759c <__sfp+0x2c>
    75b4:	e5963000 	ldr	r3, [r6]
    75b8:	e3530000 	cmp	r3, #0
    75bc:	1a000005 	bne	75d8 <__sfp+0x68>
    75c0:	e1a00007 	mov	r0, r7
    75c4:	e3a01004 	mov	r1, #4
    75c8:	ebffffb6 	bl	74a8 <__sfmoreglue>
    75cc:	e3500000 	cmp	r0, #0
    75d0:	e5860000 	str	r0, [r6]
    75d4:	0a000001 	beq	75e0 <__sfp+0x70>
    75d8:	e5966000 	ldr	r6, [r6]
    75dc:	eaffffec 	b	7594 <__sfp+0x24>
    75e0:	e3a0300c 	mov	r3, #12
    75e4:	e5873000 	str	r3, [r7]
    75e8:	e1a04000 	mov	r4, r0
    75ec:	ea000012 	b	763c <__sfp+0xcc>
    75f0:	e3e03000 	mvn	r3, #0
    75f4:	e1c430be 	strh	r3, [r4, #14]
    75f8:	e3a03001 	mov	r3, #1
    75fc:	e1c430bc 	strh	r3, [r4, #12]
    7600:	e5845064 	str	r5, [r4, #100]	; 0x64
    7604:	e5845000 	str	r5, [r4]
    7608:	e5845008 	str	r5, [r4, #8]
    760c:	e5845004 	str	r5, [r4, #4]
    7610:	e5845010 	str	r5, [r4, #16]
    7614:	e5845014 	str	r5, [r4, #20]
    7618:	e5845018 	str	r5, [r4, #24]
    761c:	e284005c 	add	r0, r4, #92	; 0x5c
    7620:	e1a01005 	mov	r1, r5
    7624:	e3a02008 	mov	r2, #8
    7628:	eb000345 	bl	8344 <memset>
    762c:	e5845030 	str	r5, [r4, #48]	; 0x30
    7630:	e5845034 	str	r5, [r4, #52]	; 0x34
    7634:	e5845044 	str	r5, [r4, #68]	; 0x44
    7638:	e5845048 	str	r5, [r4, #72]	; 0x48
    763c:	e1a00004 	mov	r0, r4
    7640:	e8bd40f8 	pop	{r3, r4, r5, r6, r7, lr}
    7644:	e12fff1e 	bx	lr
    7648:	0000ced0 	.word	0x0000ced0

0000764c <__sfp_lock_acquire>:
    764c:	e12fff1e 	bx	lr

00007650 <__sfp_lock_release>:
    7650:	e12fff1e 	bx	lr

00007654 <__sinit_lock_acquire>:
    7654:	e12fff1e 	bx	lr

00007658 <__sinit_lock_release>:
    7658:	e12fff1e 	bx	lr

0000765c <__fp_lock_all>:
    765c:	e92d4008 	push	{r3, lr}
    7660:	e59f3010 	ldr	r3, [pc, #16]	; 7678 <__fp_lock_all+0x1c>
    7664:	e59f1010 	ldr	r1, [pc, #16]	; 767c <__fp_lock_all+0x20>
    7668:	e5930000 	ldr	r0, [r3]
    766c:	eb0000dc 	bl	79e4 <_fwalk>
    7670:	e8bd4008 	pop	{r3, lr}
    7674:	e12fff1e 	bx	lr
    7678:	40000428 	.word	0x40000428
    767c:	00007404 	.word	0x00007404

00007680 <__fp_unlock_all>:
    7680:	e92d4008 	push	{r3, lr}
    7684:	e59f3010 	ldr	r3, [pc, #16]	; 769c <__fp_unlock_all+0x1c>
    7688:	e59f1010 	ldr	r1, [pc, #16]	; 76a0 <__fp_unlock_all+0x20>
    768c:	e5930000 	ldr	r0, [r3]
    7690:	eb0000d3 	bl	79e4 <_fwalk>
    7694:	e8bd4008 	pop	{r3, lr}
    7698:	e12fff1e 	bx	lr
    769c:	40000428 	.word	0x40000428
    76a0:	0000740c 	.word	0x0000740c

000076a4 <_malloc_trim_r>:
    76a4:	e92d41f0 	push	{r4, r5, r6, r7, r8, lr}
    76a8:	e59f60e0 	ldr	r6, [pc, #224]	; 7790 <_malloc_trim_r+0xec>
    76ac:	e1a08001 	mov	r8, r1
    76b0:	e1a04000 	mov	r4, r0
    76b4:	eb000329 	bl	8360 <__malloc_lock>
    76b8:	e5963008 	ldr	r3, [r6, #8]
    76bc:	e5937004 	ldr	r7, [r3, #4]
    76c0:	e3c77003 	bic	r7, r7, #3
    76c4:	e2875efe 	add	r5, r7, #4064	; 0xfe0
    76c8:	e285500f 	add	r5, r5, #15
    76cc:	e0685005 	rsb	r5, r8, r5
    76d0:	e3c55eff 	bic	r5, r5, #4080	; 0xff0
    76d4:	e3c5500f 	bic	r5, r5, #15
    76d8:	e2455a01 	sub	r5, r5, #4096	; 0x1000
    76dc:	e3550a01 	cmp	r5, #4096	; 0x1000
    76e0:	ba000019 	blt	774c <_malloc_trim_r+0xa8>
    76e4:	e1a00004 	mov	r0, r4
    76e8:	e3a01000 	mov	r1, #0
    76ec:	eb000632 	bl	8fbc <_sbrk_r>
    76f0:	e5963008 	ldr	r3, [r6, #8]
    76f4:	e0833007 	add	r3, r3, r7
    76f8:	e1500003 	cmp	r0, r3
    76fc:	1a000012 	bne	774c <_malloc_trim_r+0xa8>
    7700:	e1a00004 	mov	r0, r4
    7704:	e2651000 	rsb	r1, r5, #0
    7708:	eb00062b 	bl	8fbc <_sbrk_r>
    770c:	e3700001 	cmn	r0, #1
    7710:	1a000011 	bne	775c <_malloc_trim_r+0xb8>
    7714:	e1a00004 	mov	r0, r4
    7718:	e3a01000 	mov	r1, #0
    771c:	eb000626 	bl	8fbc <_sbrk_r>
    7720:	e5963008 	ldr	r3, [r6, #8]
    7724:	e0632000 	rsb	r2, r3, r0
    7728:	e352000f 	cmp	r2, #15
    772c:	da000006 	ble	774c <_malloc_trim_r+0xa8>
    7730:	e59f105c 	ldr	r1, [pc, #92]	; 7794 <_malloc_trim_r+0xf0>
    7734:	e5911000 	ldr	r1, [r1]
    7738:	e0610000 	rsb	r0, r1, r0
    773c:	e59f1054 	ldr	r1, [pc, #84]	; 7798 <_malloc_trim_r+0xf4>
    7740:	e3822001 	orr	r2, r2, #1
    7744:	e5810000 	str	r0, [r1]
    7748:	e5832004 	str	r2, [r3, #4]
    774c:	e1a00004 	mov	r0, r4
    7750:	eb000303 	bl	8364 <__malloc_unlock>
    7754:	e3a00000 	mov	r0, #0
    7758:	ea00000a 	b	7788 <_malloc_trim_r+0xe4>
    775c:	e5963008 	ldr	r3, [r6, #8]
    7760:	e0657007 	rsb	r7, r5, r7
    7764:	e3877001 	orr	r7, r7, #1
    7768:	e5837004 	str	r7, [r3, #4]
    776c:	e59f3024 	ldr	r3, [pc, #36]	; 7798 <_malloc_trim_r+0xf4>
    7770:	e5932000 	ldr	r2, [r3]
    7774:	e0655002 	rsb	r5, r5, r2
    7778:	e1a00004 	mov	r0, r4
    777c:	e5835000 	str	r5, [r3]
    7780:	eb0002f7 	bl	8364 <__malloc_unlock>
    7784:	e3a00001 	mov	r0, #1
    7788:	e8bd41f0 	pop	{r4, r5, r6, r7, r8, lr}
    778c:	e12fff1e 	bx	lr
    7790:	400004a8 	.word	0x400004a8
    7794:	400008b4 	.word	0x400008b4
    7798:	400008d8 	.word	0x400008d8

0000779c <_free_r>:
    779c:	e92d4070 	push	{r4, r5, r6, lr}
    77a0:	e2515000 	subs	r5, r1, #0
    77a4:	e1a04000 	mov	r4, r0
    77a8:	0a000086 	beq	79c8 <_free_r+0x22c>
    77ac:	eb0002eb 	bl	8360 <__malloc_lock>
    77b0:	e515c004 	ldr	ip, [r5, #-4]
    77b4:	e59f0214 	ldr	r0, [pc, #532]	; 79d0 <_free_r+0x234>
    77b8:	e3cc2001 	bic	r2, ip, #1
    77bc:	e2453008 	sub	r3, r5, #8
    77c0:	e0831002 	add	r1, r3, r2
    77c4:	e5906008 	ldr	r6, [r0, #8]
    77c8:	e591e004 	ldr	lr, [r1, #4]
    77cc:	e1510006 	cmp	r1, r6
    77d0:	e3cee003 	bic	lr, lr, #3
    77d4:	e20cc001 	and	ip, ip, #1
    77d8:	1a000015 	bne	7834 <_free_r+0x98>
    77dc:	e35c0000 	cmp	ip, #0
    77e0:	e08e2002 	add	r2, lr, r2
    77e4:	1a000006 	bne	7804 <_free_r+0x68>
    77e8:	e5151008 	ldr	r1, [r5, #-8]
    77ec:	e0613003 	rsb	r3, r1, r3
    77f0:	e593c008 	ldr	ip, [r3, #8]
    77f4:	e0822001 	add	r2, r2, r1
    77f8:	e593100c 	ldr	r1, [r3, #12]
    77fc:	e58c100c 	str	r1, [ip, #12]
    7800:	e581c008 	str	ip, [r1, #8]
    7804:	e3821001 	orr	r1, r2, #1
    7808:	e5831004 	str	r1, [r3, #4]
    780c:	e5803008 	str	r3, [r0, #8]
    7810:	e59f31bc 	ldr	r3, [pc, #444]	; 79d4 <_free_r+0x238>
    7814:	e5933000 	ldr	r3, [r3]
    7818:	e1520003 	cmp	r2, r3
    781c:	3a000067 	bcc	79c0 <_free_r+0x224>
    7820:	e59f31b0 	ldr	r3, [pc, #432]	; 79d8 <_free_r+0x23c>
    7824:	e1a00004 	mov	r0, r4
    7828:	e5931000 	ldr	r1, [r3]
    782c:	ebffff9c 	bl	76a4 <_malloc_trim_r>
    7830:	ea000062 	b	79c0 <_free_r+0x224>
    7834:	e35c0000 	cmp	ip, #0
    7838:	e581e004 	str	lr, [r1, #4]
    783c:	13a0c000 	movne	ip, #0
    7840:	1a000009 	bne	786c <_free_r+0xd0>
    7844:	e5155008 	ldr	r5, [r5, #-8]
    7848:	e0653003 	rsb	r3, r5, r3
    784c:	e0822005 	add	r2, r2, r5
    7850:	e5935008 	ldr	r5, [r3, #8]
    7854:	e2806008 	add	r6, r0, #8
    7858:	e1550006 	cmp	r5, r6
    785c:	1593600c 	ldrne	r6, [r3, #12]
    7860:	1585600c 	strne	r6, [r5, #12]
    7864:	15865008 	strne	r5, [r6, #8]
    7868:	03a0c001 	moveq	ip, #1
    786c:	e081500e 	add	r5, r1, lr
    7870:	e5955004 	ldr	r5, [r5, #4]
    7874:	e3150001 	tst	r5, #1
    7878:	1a000010 	bne	78c0 <_free_r+0x124>
    787c:	e35c0000 	cmp	ip, #0
    7880:	e082200e 	add	r2, r2, lr
    7884:	1a000009 	bne	78b0 <_free_r+0x114>
    7888:	e591e008 	ldr	lr, [r1, #8]
    788c:	e59f5148 	ldr	r5, [pc, #328]	; 79dc <_free_r+0x240>
    7890:	e15e0005 	cmp	lr, r5
    7894:	1a000005 	bne	78b0 <_free_r+0x114>
    7898:	e58e300c 	str	r3, [lr, #12]
    789c:	e58e3008 	str	r3, [lr, #8]
    78a0:	e583e00c 	str	lr, [r3, #12]
    78a4:	e583e008 	str	lr, [r3, #8]
    78a8:	e28cc001 	add	ip, ip, #1
    78ac:	ea000003 	b	78c0 <_free_r+0x124>
    78b0:	e2811008 	add	r1, r1, #8
    78b4:	e8914002 	ldm	r1, {r1, lr}
    78b8:	e581e00c 	str	lr, [r1, #12]
    78bc:	e58e1008 	str	r1, [lr, #8]
    78c0:	e3821001 	orr	r1, r2, #1
    78c4:	e35c0000 	cmp	ip, #0
    78c8:	e5831004 	str	r1, [r3, #4]
    78cc:	e7832002 	str	r2, [r3, r2]
    78d0:	1a00003a 	bne	79c0 <_free_r+0x224>
    78d4:	e3520c02 	cmp	r2, #512	; 0x200
    78d8:	2a00000c 	bcs	7910 <_free_r+0x174>
    78dc:	e1a021a2 	lsr	r2, r2, #3
    78e0:	e590c004 	ldr	ip, [r0, #4]
    78e4:	e1a01142 	asr	r1, r2, #2
    78e8:	e3a0e001 	mov	lr, #1
    78ec:	e18c111e 	orr	r1, ip, lr, lsl r1
    78f0:	e5801004 	str	r1, [r0, #4]
    78f4:	e0800182 	add	r0, r0, r2, lsl #3
    78f8:	e5902008 	ldr	r2, [r0, #8]
    78fc:	e583000c 	str	r0, [r3, #12]
    7900:	e5832008 	str	r2, [r3, #8]
    7904:	e582300c 	str	r3, [r2, #12]
    7908:	e5803008 	str	r3, [r0, #8]
    790c:	ea00002b 	b	79c0 <_free_r+0x224>
    7910:	e1a0c4a2 	lsr	ip, r2, #9
    7914:	e35c0004 	cmp	ip, #4
    7918:	91a0c322 	lsrls	ip, r2, #6
    791c:	928cc038 	addls	ip, ip, #56	; 0x38
    7920:	9a00000f 	bls	7964 <_free_r+0x1c8>
    7924:	e35c0014 	cmp	ip, #20
    7928:	928cc05b 	addls	ip, ip, #91	; 0x5b
    792c:	9a00000c 	bls	7964 <_free_r+0x1c8>
    7930:	e35c0054 	cmp	ip, #84	; 0x54
    7934:	91a0c622 	lsrls	ip, r2, #12
    7938:	928cc06e 	addls	ip, ip, #110	; 0x6e
    793c:	9a000008 	bls	7964 <_free_r+0x1c8>
    7940:	e35c0f55 	cmp	ip, #340	; 0x154
    7944:	91a0c7a2 	lsrls	ip, r2, #15
    7948:	928cc077 	addls	ip, ip, #119	; 0x77
    794c:	9a000004 	bls	7964 <_free_r+0x1c8>
    7950:	e59f1088 	ldr	r1, [pc, #136]	; 79e0 <_free_r+0x244>
    7954:	e15c0001 	cmp	ip, r1
    7958:	91a0c922 	lsrls	ip, r2, #18
    795c:	928cc07c 	addls	ip, ip, #124	; 0x7c
    7960:	83a0c07e 	movhi	ip, #126	; 0x7e
    7964:	e080e18c 	add	lr, r0, ip, lsl #3
    7968:	e59e1008 	ldr	r1, [lr, #8]
    796c:	e151000e 	cmp	r1, lr
    7970:	1a000009 	bne	799c <_free_r+0x200>
    7974:	e5902004 	ldr	r2, [r0, #4]
    7978:	e1a0c14c 	asr	ip, ip, #2
    797c:	e3a0e001 	mov	lr, #1
    7980:	e182cc1e 	orr	ip, r2, lr, lsl ip
    7984:	e1a02001 	mov	r2, r1
    7988:	e580c004 	str	ip, [r0, #4]
    798c:	ea000007 	b	79b0 <_free_r+0x214>
    7990:	e5911008 	ldr	r1, [r1, #8]
    7994:	e151000e 	cmp	r1, lr
    7998:	0a000003 	beq	79ac <_free_r+0x210>
    799c:	e5910004 	ldr	r0, [r1, #4]
    79a0:	e3c00003 	bic	r0, r0, #3
    79a4:	e1520000 	cmp	r2, r0
    79a8:	3afffff8 	bcc	7990 <_free_r+0x1f4>
    79ac:	e591200c 	ldr	r2, [r1, #12]
    79b0:	e583200c 	str	r2, [r3, #12]
    79b4:	e5831008 	str	r1, [r3, #8]
    79b8:	e581300c 	str	r3, [r1, #12]
    79bc:	e5823008 	str	r3, [r2, #8]
    79c0:	e1a00004 	mov	r0, r4
    79c4:	eb000266 	bl	8364 <__malloc_unlock>
    79c8:	e8bd4070 	pop	{r4, r5, r6, lr}
    79cc:	e12fff1e 	bx	lr
    79d0:	400004a8 	.word	0x400004a8
    79d4:	400008b0 	.word	0x400008b0
    79d8:	400008d4 	.word	0x400008d4
    79dc:	400004b0 	.word	0x400004b0
    79e0:	00000554 	.word	0x00000554

000079e4 <_fwalk>:
    79e4:	e92d41f0 	push	{r4, r5, r6, r7, r8, lr}
    79e8:	e1a04000 	mov	r4, r0
    79ec:	e1a08001 	mov	r8, r1
    79f0:	e2844e2e 	add	r4, r4, #736	; 0x2e0
    79f4:	ebffff14 	bl	764c <__sfp_lock_acquire>
    79f8:	e3a06000 	mov	r6, #0
    79fc:	ea000010 	b	7a44 <_fwalk+0x60>
    7a00:	e5945008 	ldr	r5, [r4, #8]
    7a04:	e5947004 	ldr	r7, [r4, #4]
    7a08:	ea00000a 	b	7a38 <_fwalk+0x54>
    7a0c:	e1d530fc 	ldrsh	r3, [r5, #12]
    7a10:	e3530000 	cmp	r3, #0
    7a14:	0a000006 	beq	7a34 <_fwalk+0x50>
    7a18:	e1d530fe 	ldrsh	r3, [r5, #14]
    7a1c:	e3730001 	cmn	r3, #1
    7a20:	0a000003 	beq	7a34 <_fwalk+0x50>
    7a24:	e1a00005 	mov	r0, r5
    7a28:	e1a0e00f 	mov	lr, pc
    7a2c:	e12fff18 	bx	r8
    7a30:	e1866000 	orr	r6, r6, r0
    7a34:	e2855068 	add	r5, r5, #104	; 0x68
    7a38:	e2577001 	subs	r7, r7, #1
    7a3c:	5afffff2 	bpl	7a0c <_fwalk+0x28>
    7a40:	e5944000 	ldr	r4, [r4]
    7a44:	e3540000 	cmp	r4, #0
    7a48:	1affffec 	bne	7a00 <_fwalk+0x1c>
    7a4c:	ebfffeff 	bl	7650 <__sfp_lock_release>
    7a50:	e1a00006 	mov	r0, r6
    7a54:	e8bd41f0 	pop	{r4, r5, r6, r7, r8, lr}
    7a58:	e12fff1e 	bx	lr

00007a5c <_fwalk_reent>:
    7a5c:	e92d45f8 	push	{r3, r4, r5, r6, r7, r8, sl, lr}
    7a60:	e1a08000 	mov	r8, r0
    7a64:	e1a0a001 	mov	sl, r1
    7a68:	e2884e2e 	add	r4, r8, #736	; 0x2e0
    7a6c:	ebfffef6 	bl	764c <__sfp_lock_acquire>
    7a70:	e3a06000 	mov	r6, #0
    7a74:	ea000011 	b	7ac0 <_fwalk_reent+0x64>
    7a78:	e5945008 	ldr	r5, [r4, #8]
    7a7c:	e5947004 	ldr	r7, [r4, #4]
    7a80:	ea00000b 	b	7ab4 <_fwalk_reent+0x58>
    7a84:	e1d530fc 	ldrsh	r3, [r5, #12]
    7a88:	e3530000 	cmp	r3, #0
    7a8c:	0a000007 	beq	7ab0 <_fwalk_reent+0x54>
    7a90:	e1d530fe 	ldrsh	r3, [r5, #14]
    7a94:	e3730001 	cmn	r3, #1
    7a98:	0a000004 	beq	7ab0 <_fwalk_reent+0x54>
    7a9c:	e1a00008 	mov	r0, r8
    7aa0:	e1a01005 	mov	r1, r5
    7aa4:	e1a0e00f 	mov	lr, pc
    7aa8:	e12fff1a 	bx	sl
    7aac:	e1866000 	orr	r6, r6, r0
    7ab0:	e2855068 	add	r5, r5, #104	; 0x68
    7ab4:	e2577001 	subs	r7, r7, #1
    7ab8:	5afffff1 	bpl	7a84 <_fwalk_reent+0x28>
    7abc:	e5944000 	ldr	r4, [r4]
    7ac0:	e3540000 	cmp	r4, #0
    7ac4:	1affffeb 	bne	7a78 <_fwalk_reent+0x1c>
    7ac8:	ebfffee0 	bl	7650 <__sfp_lock_release>
    7acc:	e1a00006 	mov	r0, r6
    7ad0:	e8bd45f8 	pop	{r3, r4, r5, r6, r7, r8, sl, lr}
    7ad4:	e12fff1e 	bx	lr

00007ad8 <_setlocale_r>:
    7ad8:	e92d4010 	push	{r4, lr}
    7adc:	e2524000 	subs	r4, r2, #0
    7ae0:	0a000011 	beq	7b2c <_setlocale_r+0x54>
    7ae4:	e1a00004 	mov	r0, r4
    7ae8:	e59f1048 	ldr	r1, [pc, #72]	; 7b38 <_setlocale_r+0x60>
    7aec:	eb000577 	bl	90d0 <strcmp>
    7af0:	e3500000 	cmp	r0, #0
    7af4:	0a00000c 	beq	7b2c <_setlocale_r+0x54>
    7af8:	e1a00004 	mov	r0, r4
    7afc:	e59f1038 	ldr	r1, [pc, #56]	; 7b3c <_setlocale_r+0x64>
    7b00:	eb000572 	bl	90d0 <strcmp>
    7b04:	e3500000 	cmp	r0, #0
    7b08:	0a000007 	beq	7b2c <_setlocale_r+0x54>
    7b0c:	e1a00004 	mov	r0, r4
    7b10:	e59f1028 	ldr	r1, [pc, #40]	; 7b40 <_setlocale_r+0x68>
    7b14:	eb00056d 	bl	90d0 <strcmp>
    7b18:	e59f301c 	ldr	r3, [pc, #28]	; 7b3c <_setlocale_r+0x64>
    7b1c:	e3500000 	cmp	r0, #0
    7b20:	01a00003 	moveq	r0, r3
    7b24:	13a00000 	movne	r0, #0
    7b28:	ea000000 	b	7b30 <_setlocale_r+0x58>
    7b2c:	e59f0008 	ldr	r0, [pc, #8]	; 7b3c <_setlocale_r+0x64>
    7b30:	e8bd4010 	pop	{r4, lr}
    7b34:	e12fff1e 	bx	lr
    7b38:	0000ced4 	.word	0x0000ced4
    7b3c:	0000cecd 	.word	0x0000cecd
    7b40:	0000cedb 	.word	0x0000cedb

00007b44 <__locale_charset>:
    7b44:	e51f0000 	ldr	r0, [pc, #-0]	; 7b4c <__locale_charset+0x8>
    7b48:	e12fff1e 	bx	lr
    7b4c:	40000484 	.word	0x40000484

00007b50 <__locale_mb_cur_max>:
    7b50:	e59f3004 	ldr	r3, [pc, #4]	; 7b5c <__locale_mb_cur_max+0xc>
    7b54:	e5930000 	ldr	r0, [r3]
    7b58:	e12fff1e 	bx	lr
    7b5c:	400004a4 	.word	0x400004a4

00007b60 <__locale_msgcharset>:
    7b60:	e51f0000 	ldr	r0, [pc, #-0]	; 7b68 <__locale_msgcharset+0x8>
    7b64:	e12fff1e 	bx	lr
    7b68:	4000042c 	.word	0x4000042c

00007b6c <__locale_cjk_lang>:
    7b6c:	e3a00000 	mov	r0, #0
    7b70:	e12fff1e 	bx	lr

00007b74 <_localeconv_r>:
    7b74:	e51f0000 	ldr	r0, [pc, #-0]	; 7b7c <_localeconv_r+0x8>
    7b78:	e12fff1e 	bx	lr
    7b7c:	4000044c 	.word	0x4000044c

00007b80 <setlocale>:
    7b80:	e1a02001 	mov	r2, r1
    7b84:	e59f100c 	ldr	r1, [pc, #12]	; 7b98 <setlocale+0x18>
    7b88:	e1a03000 	mov	r3, r0
    7b8c:	e5910000 	ldr	r0, [r1]
    7b90:	e1a01003 	mov	r1, r3
    7b94:	eaffffcf 	b	7ad8 <_setlocale_r>
    7b98:	40000428 	.word	0x40000428

00007b9c <localeconv>:
    7b9c:	e51f0000 	ldr	r0, [pc, #-0]	; 7ba4 <localeconv+0x8>
    7ba0:	e12fff1e 	bx	lr
    7ba4:	4000044c 	.word	0x4000044c

00007ba8 <__smakebuf_r>:
    7ba8:	e92d40f0 	push	{r4, r5, r6, r7, lr}
    7bac:	e1d130bc 	ldrh	r3, [r1, #12]
    7bb0:	e3130002 	tst	r3, #2
    7bb4:	e24dd044 	sub	sp, sp, #68	; 0x44
    7bb8:	e1a05000 	mov	r5, r0
    7bbc:	e1a04001 	mov	r4, r1
    7bc0:	0a000005 	beq	7bdc <__smakebuf_r+0x34>
    7bc4:	e2813043 	add	r3, r1, #67	; 0x43
    7bc8:	e5813000 	str	r3, [r1]
    7bcc:	e5813010 	str	r3, [r1, #16]
    7bd0:	e3a03001 	mov	r3, #1
    7bd4:	e5813014 	str	r3, [r1, #20]
    7bd8:	ea000043 	b	7cec <__smakebuf_r+0x144>
    7bdc:	e1d110fe 	ldrsh	r1, [r1, #14]
    7be0:	e3510000 	cmp	r1, #0
    7be4:	ba000003 	blt	7bf8 <__smakebuf_r+0x50>
    7be8:	e28d2004 	add	r2, sp, #4
    7bec:	eb0009d9 	bl	a358 <_fstat_r>
    7bf0:	e3500000 	cmp	r0, #0
    7bf4:	aa000007 	bge	7c18 <__smakebuf_r+0x70>
    7bf8:	e1d430bc 	ldrh	r3, [r4, #12]
    7bfc:	e3130080 	tst	r3, #128	; 0x80
    7c00:	e3833b02 	orr	r3, r3, #2048	; 0x800
    7c04:	03a06c01 	moveq	r6, #256	; 0x100
    7c08:	13a06040 	movne	r6, #64	; 0x40
    7c0c:	e1c430bc 	strh	r3, [r4, #12]
    7c10:	e3a07000 	mov	r7, #0
    7c14:	ea000014 	b	7c6c <__smakebuf_r+0xc4>
    7c18:	e59d3008 	ldr	r3, [sp, #8]
    7c1c:	e2033a0f 	and	r3, r3, #61440	; 0xf000
    7c20:	e2432a02 	sub	r2, r3, #8192	; 0x2000
    7c24:	e2727000 	rsbs	r7, r2, #0
    7c28:	e0a77002 	adc	r7, r7, r2
    7c2c:	e3530902 	cmp	r3, #32768	; 0x8000
    7c30:	1a000009 	bne	7c5c <__smakebuf_r+0xb4>
    7c34:	e5942028 	ldr	r2, [r4, #40]	; 0x28
    7c38:	e59f30b8 	ldr	r3, [pc, #184]	; 7cf8 <__smakebuf_r+0x150>
    7c3c:	e1520003 	cmp	r2, r3
    7c40:	1a000005 	bne	7c5c <__smakebuf_r+0xb4>
    7c44:	e1d430bc 	ldrh	r3, [r4, #12]
    7c48:	e3833b01 	orr	r3, r3, #1024	; 0x400
    7c4c:	e1c430bc 	strh	r3, [r4, #12]
    7c50:	e3a03b01 	mov	r3, #1024	; 0x400
    7c54:	e584304c 	str	r3, [r4, #76]	; 0x4c
    7c58:	ea000002 	b	7c68 <__smakebuf_r+0xc0>
    7c5c:	e1d430bc 	ldrh	r3, [r4, #12]
    7c60:	e3833b02 	orr	r3, r3, #2048	; 0x800
    7c64:	e1c430bc 	strh	r3, [r4, #12]
    7c68:	e3a06c01 	mov	r6, #256	; 0x100
    7c6c:	e1a00005 	mov	r0, r5
    7c70:	e1a01006 	mov	r1, r6
    7c74:	eb000021 	bl	7d00 <_malloc_r>
    7c78:	e3500000 	cmp	r0, #0
    7c7c:	e1d430bc 	ldrh	r3, [r4, #12]
    7c80:	1a000009 	bne	7cac <__smakebuf_r+0x104>
    7c84:	e3130c02 	tst	r3, #512	; 0x200
    7c88:	1a000017 	bne	7cec <__smakebuf_r+0x144>
    7c8c:	e3833002 	orr	r3, r3, #2
    7c90:	e1c430bc 	strh	r3, [r4, #12]
    7c94:	e2843043 	add	r3, r4, #67	; 0x43
    7c98:	e5843000 	str	r3, [r4]
    7c9c:	e5843010 	str	r3, [r4, #16]
    7ca0:	e3a03001 	mov	r3, #1
    7ca4:	e5843014 	str	r3, [r4, #20]
    7ca8:	ea00000f 	b	7cec <__smakebuf_r+0x144>
    7cac:	e59f2048 	ldr	r2, [pc, #72]	; 7cfc <__smakebuf_r+0x154>
    7cb0:	e3833080 	orr	r3, r3, #128	; 0x80
    7cb4:	e3570000 	cmp	r7, #0
    7cb8:	e585203c 	str	r2, [r5, #60]	; 0x3c
    7cbc:	e1c430bc 	strh	r3, [r4, #12]
    7cc0:	e5840000 	str	r0, [r4]
    7cc4:	e5840010 	str	r0, [r4, #16]
    7cc8:	e5846014 	str	r6, [r4, #20]
    7ccc:	0a000006 	beq	7cec <__smakebuf_r+0x144>
    7cd0:	e1a00005 	mov	r0, r5
    7cd4:	e1d410fe 	ldrsh	r1, [r4, #14]
    7cd8:	eb000ac5 	bl	a7f4 <_isatty_r>
    7cdc:	e3500000 	cmp	r0, #0
    7ce0:	11d430bc 	ldrhne	r3, [r4, #12]
    7ce4:	13833001 	orrne	r3, r3, #1
    7ce8:	11c430bc 	strhne	r3, [r4, #12]
    7cec:	e28dd044 	add	sp, sp, #68	; 0x44
    7cf0:	e8bd40f0 	pop	{r4, r5, r6, r7, lr}
    7cf4:	e12fff1e 	bx	lr
    7cf8:	00009088 	.word	0x00009088
    7cfc:	00007414 	.word	0x00007414

00007d00 <_malloc_r>:
    7d00:	e92d47f0 	push	{r4, r5, r6, r7, r8, r9, sl, lr}
    7d04:	e281400b 	add	r4, r1, #11
    7d08:	e3540016 	cmp	r4, #22
    7d0c:	83c44007 	bichi	r4, r4, #7
    7d10:	93a04010 	movls	r4, #16
    7d14:	e1540001 	cmp	r4, r1
    7d18:	23a01000 	movcs	r1, #0
    7d1c:	33a01001 	movcc	r1, #1
    7d20:	e1911fa4 	orrs	r1, r1, r4, lsr #31
    7d24:	13a0300c 	movne	r3, #12
    7d28:	e1a07000 	mov	r7, r0
    7d2c:	15803000 	strne	r3, [r0]
    7d30:	1a000159 	bne	829c <__cs3_region_size_ram+0x29c>
    7d34:	eb000189 	bl	8360 <__malloc_lock>
    7d38:	e3540f7e 	cmp	r4, #504	; 0x1f8
    7d3c:	2a00000d 	bcs	7d78 <_malloc_r+0x78>
    7d40:	e59f3590 	ldr	r3, [pc, #1424]	; 82d8 <__cs3_region_size_ram+0x2d8>
    7d44:	e1a011a4 	lsr	r1, r4, #3
    7d48:	e0833181 	add	r3, r3, r1, lsl #3
    7d4c:	e593600c 	ldr	r6, [r3, #12]
    7d50:	e1560003 	cmp	r6, r3
    7d54:	1a000004 	bne	7d6c <_malloc_r+0x6c>
    7d58:	e2863008 	add	r3, r6, #8
    7d5c:	e5966014 	ldr	r6, [r6, #20]
    7d60:	e1560003 	cmp	r6, r3
    7d64:	02811002 	addeq	r1, r1, #2
    7d68:	0a00002e 	beq	7e28 <_malloc_r+0x128>
    7d6c:	e5963004 	ldr	r3, [r6, #4]
    7d70:	e3c33003 	bic	r3, r3, #3
    7d74:	ea000022 	b	7e04 <_malloc_r+0x104>
    7d78:	e1b014a4 	lsrs	r1, r4, #9
    7d7c:	01a011a4 	lsreq	r1, r4, #3
    7d80:	0a000013 	beq	7dd4 <_malloc_r+0xd4>
    7d84:	e3510004 	cmp	r1, #4
    7d88:	91a01324 	lsrls	r1, r4, #6
    7d8c:	92811038 	addls	r1, r1, #56	; 0x38
    7d90:	9a00000f 	bls	7dd4 <_malloc_r+0xd4>
    7d94:	e3510014 	cmp	r1, #20
    7d98:	9281105b 	addls	r1, r1, #91	; 0x5b
    7d9c:	9a00000c 	bls	7dd4 <_malloc_r+0xd4>
    7da0:	e3510054 	cmp	r1, #84	; 0x54
    7da4:	91a01624 	lsrls	r1, r4, #12
    7da8:	9281106e 	addls	r1, r1, #110	; 0x6e
    7dac:	9a000008 	bls	7dd4 <_malloc_r+0xd4>
    7db0:	e3510f55 	cmp	r1, #340	; 0x154
    7db4:	91a017a4 	lsrls	r1, r4, #15
    7db8:	92811077 	addls	r1, r1, #119	; 0x77
    7dbc:	9a000004 	bls	7dd4 <_malloc_r+0xd4>
    7dc0:	e59f3514 	ldr	r3, [pc, #1300]	; 82dc <__cs3_region_size_ram+0x2dc>
    7dc4:	e1510003 	cmp	r1, r3
    7dc8:	91a01924 	lsrls	r1, r4, #18
    7dcc:	9281107c 	addls	r1, r1, #124	; 0x7c
    7dd0:	83a0107e 	movhi	r1, #126	; 0x7e
    7dd4:	e59f24fc 	ldr	r2, [pc, #1276]	; 82d8 <__cs3_region_size_ram+0x2d8>
    7dd8:	e0822181 	add	r2, r2, r1, lsl #3
    7ddc:	e592600c 	ldr	r6, [r2, #12]
    7de0:	ea00000d 	b	7e1c <_malloc_r+0x11c>
    7de4:	e5963004 	ldr	r3, [r6, #4]
    7de8:	e3c33003 	bic	r3, r3, #3
    7dec:	e0640003 	rsb	r0, r4, r3
    7df0:	e350000f 	cmp	r0, #15
    7df4:	c2411001 	subgt	r1, r1, #1
    7df8:	ca000009 	bgt	7e24 <_malloc_r+0x124>
    7dfc:	e3500000 	cmp	r0, #0
    7e00:	ba000004 	blt	7e18 <_malloc_r+0x118>
    7e04:	e2861008 	add	r1, r6, #8
    7e08:	e8910006 	ldm	r1, {r1, r2}
    7e0c:	e581200c 	str	r2, [r1, #12]
    7e10:	e5821008 	str	r1, [r2, #8]
    7e14:	ea00001c 	b	7e8c <_malloc_r+0x18c>
    7e18:	e596600c 	ldr	r6, [r6, #12]
    7e1c:	e1560002 	cmp	r6, r2
    7e20:	1affffef 	bne	7de4 <_malloc_r+0xe4>
    7e24:	e2811001 	add	r1, r1, #1
    7e28:	e59f54a8 	ldr	r5, [pc, #1192]	; 82d8 <__cs3_region_size_ram+0x2d8>
    7e2c:	e2852008 	add	r2, r5, #8
    7e30:	e5926008 	ldr	r6, [r2, #8]
    7e34:	e1560002 	cmp	r6, r2
    7e38:	0a00004f 	beq	7f7c <_malloc_r+0x27c>
    7e3c:	e5963004 	ldr	r3, [r6, #4]
    7e40:	e3c33003 	bic	r3, r3, #3
    7e44:	e0640003 	rsb	r0, r4, r3
    7e48:	e350000f 	cmp	r0, #15
    7e4c:	da00000a 	ble	7e7c <_malloc_r+0x17c>
    7e50:	e0863004 	add	r3, r6, r4
    7e54:	e582300c 	str	r3, [r2, #12]
    7e58:	e5823008 	str	r3, [r2, #8]
    7e5c:	e3844001 	orr	r4, r4, #1
    7e60:	e583200c 	str	r2, [r3, #12]
    7e64:	e5832008 	str	r2, [r3, #8]
    7e68:	e3802001 	orr	r2, r0, #1
    7e6c:	e5864004 	str	r4, [r6, #4]
    7e70:	e7830000 	str	r0, [r3, r0]
    7e74:	e5832004 	str	r2, [r3, #4]
    7e78:	ea000110 	b	82c0 <__cs3_region_size_ram+0x2c0>
    7e7c:	e3500000 	cmp	r0, #0
    7e80:	e582200c 	str	r2, [r2, #12]
    7e84:	e5822008 	str	r2, [r2, #8]
    7e88:	ba000004 	blt	7ea0 <_malloc_r+0x1a0>
    7e8c:	e0863003 	add	r3, r6, r3
    7e90:	e5932004 	ldr	r2, [r3, #4]
    7e94:	e3822001 	orr	r2, r2, #1
    7e98:	e5832004 	str	r2, [r3, #4]
    7e9c:	ea000107 	b	82c0 <__cs3_region_size_ram+0x2c0>
    7ea0:	e3530c02 	cmp	r3, #512	; 0x200
    7ea4:	2a000008 	bcs	7ecc <_malloc_r+0x1cc>
    7ea8:	e1a031a3 	lsr	r3, r3, #3
    7eac:	e595c004 	ldr	ip, [r5, #4]
    7eb0:	e1a00143 	asr	r0, r3, #2
    7eb4:	e3a0e001 	mov	lr, #1
    7eb8:	e18c001e 	orr	r0, ip, lr, lsl r0
    7ebc:	e0853183 	add	r3, r5, r3, lsl #3
    7ec0:	e5850004 	str	r0, [r5, #4]
    7ec4:	e5930008 	ldr	r0, [r3, #8]
    7ec8:	ea000027 	b	7f6c <_malloc_r+0x26c>
    7ecc:	e1a0c4a3 	lsr	ip, r3, #9
    7ed0:	e35c0004 	cmp	ip, #4
    7ed4:	91a0c323 	lsrls	ip, r3, #6
    7ed8:	928cc038 	addls	ip, ip, #56	; 0x38
    7edc:	9a00000f 	bls	7f20 <_malloc_r+0x220>
    7ee0:	e35c0014 	cmp	ip, #20
    7ee4:	928cc05b 	addls	ip, ip, #91	; 0x5b
    7ee8:	9a00000c 	bls	7f20 <_malloc_r+0x220>
    7eec:	e35c0054 	cmp	ip, #84	; 0x54
    7ef0:	91a0c623 	lsrls	ip, r3, #12
    7ef4:	928cc06e 	addls	ip, ip, #110	; 0x6e
    7ef8:	9a000008 	bls	7f20 <_malloc_r+0x220>
    7efc:	e35c0f55 	cmp	ip, #340	; 0x154
    7f00:	91a0c7a3 	lsrls	ip, r3, #15
    7f04:	928cc077 	addls	ip, ip, #119	; 0x77
    7f08:	9a000004 	bls	7f20 <_malloc_r+0x220>
    7f0c:	e59f03c8 	ldr	r0, [pc, #968]	; 82dc <__cs3_region_size_ram+0x2dc>
    7f10:	e15c0000 	cmp	ip, r0
    7f14:	91a0c923 	lsrls	ip, r3, #18
    7f18:	928cc07c 	addls	ip, ip, #124	; 0x7c
    7f1c:	83a0c07e 	movhi	ip, #126	; 0x7e
    7f20:	e085e18c 	add	lr, r5, ip, lsl #3
    7f24:	e59e0008 	ldr	r0, [lr, #8]
    7f28:	e150000e 	cmp	r0, lr
    7f2c:	1a000009 	bne	7f58 <_malloc_r+0x258>
    7f30:	e5953004 	ldr	r3, [r5, #4]
    7f34:	e1a0c14c 	asr	ip, ip, #2
    7f38:	e3a0e001 	mov	lr, #1
    7f3c:	e183cc1e 	orr	ip, r3, lr, lsl ip
    7f40:	e1a03000 	mov	r3, r0
    7f44:	e585c004 	str	ip, [r5, #4]
    7f48:	ea000007 	b	7f6c <_malloc_r+0x26c>
    7f4c:	e5900008 	ldr	r0, [r0, #8]
    7f50:	e150000e 	cmp	r0, lr
    7f54:	0a000003 	beq	7f68 <_malloc_r+0x268>
    7f58:	e590c004 	ldr	ip, [r0, #4]
    7f5c:	e3ccc003 	bic	ip, ip, #3
    7f60:	e153000c 	cmp	r3, ip
    7f64:	3afffff8 	bcc	7f4c <_malloc_r+0x24c>
    7f68:	e590300c 	ldr	r3, [r0, #12]
    7f6c:	e586300c 	str	r3, [r6, #12]
    7f70:	e5860008 	str	r0, [r6, #8]
    7f74:	e5836008 	str	r6, [r3, #8]
    7f78:	e580600c 	str	r6, [r0, #12]
    7f7c:	e3a00001 	mov	r0, #1
    7f80:	e1a03141 	asr	r3, r1, #2
    7f84:	e1a03310 	lsl	r3, r0, r3
    7f88:	e5950004 	ldr	r0, [r5, #4]
    7f8c:	e1530000 	cmp	r3, r0
    7f90:	8a00004b 	bhi	80c4 <__cs3_region_size_ram+0xc4>
    7f94:	e1130000 	tst	r3, r0
    7f98:	1a000004 	bne	7fb0 <_malloc_r+0x2b0>
    7f9c:	e3c11003 	bic	r1, r1, #3
    7fa0:	e1a03083 	lsl	r3, r3, #1
    7fa4:	e1130000 	tst	r3, r0
    7fa8:	e2811004 	add	r1, r1, #4
    7fac:	0afffffb 	beq	7fa0 <_malloc_r+0x2a0>
    7fb0:	e085a181 	add	sl, r5, r1, lsl #3
    7fb4:	e1a0e00a 	mov	lr, sl
    7fb8:	e1a0c001 	mov	ip, r1
    7fbc:	e59e600c 	ldr	r6, [lr, #12]
    7fc0:	ea000021 	b	804c <__cs3_region_size_ram+0x4c>
    7fc4:	e5968004 	ldr	r8, [r6, #4]
    7fc8:	e3c88003 	bic	r8, r8, #3
    7fcc:	e0640008 	rsb	r0, r4, r8
    7fd0:	e350000f 	cmp	r0, #15
    7fd4:	da00000e 	ble	8014 <__cs3_region_size_ram+0x14>
    7fd8:	e0863004 	add	r3, r6, r4
    7fdc:	e3844001 	orr	r4, r4, #1
    7fe0:	e596100c 	ldr	r1, [r6, #12]
    7fe4:	e5864004 	str	r4, [r6, #4]
    7fe8:	e5b6c008 	ldr	ip, [r6, #8]!
    7fec:	e58c100c 	str	r1, [ip, #12]
    7ff0:	e581c008 	str	ip, [r1, #8]
    7ff4:	e582300c 	str	r3, [r2, #12]
    7ff8:	e5823008 	str	r3, [r2, #8]
    7ffc:	e583200c 	str	r2, [r3, #12]
    8000:	e5832008 	str	r2, [r3, #8]
    8004:	e3802001 	orr	r2, r0, #1
    8008:	e5832004 	str	r2, [r3, #4]
    800c:	e7830000 	str	r0, [r3, r0]
    8010:	ea000009 	b	803c <__cs3_region_size_ram+0x3c>
    8014:	e3500000 	cmp	r0, #0
    8018:	ba00000a 	blt	8048 <__cs3_region_size_ram+0x48>
    801c:	e0863008 	add	r3, r6, r8
    8020:	e5932004 	ldr	r2, [r3, #4]
    8024:	e3822001 	orr	r2, r2, #1
    8028:	e5832004 	str	r2, [r3, #4]
    802c:	e596300c 	ldr	r3, [r6, #12]
    8030:	e5b62008 	ldr	r2, [r6, #8]!
    8034:	e582300c 	str	r3, [r2, #12]
    8038:	e5832008 	str	r2, [r3, #8]
    803c:	e1a00007 	mov	r0, r7
    8040:	eb0000c7 	bl	8364 <__malloc_unlock>
    8044:	ea0000a0 	b	82cc <__cs3_region_size_ram+0x2cc>
    8048:	e596600c 	ldr	r6, [r6, #12]
    804c:	e156000e 	cmp	r6, lr
    8050:	1affffdb 	bne	7fc4 <_malloc_r+0x2c4>
    8054:	e28cc001 	add	ip, ip, #1
    8058:	e31c0003 	tst	ip, #3
    805c:	01a0000a 	moveq	r0, sl
    8060:	128ee008 	addne	lr, lr, #8
    8064:	1affffd4 	bne	7fbc <_malloc_r+0x2bc>
    8068:	e3110003 	tst	r1, #3
    806c:	05951004 	ldreq	r1, [r5, #4]
    8070:	01c11003 	biceq	r1, r1, r3
    8074:	05851004 	streq	r1, [r5, #4]
    8078:	0a000004 	beq	8090 <__cs3_region_size_ram+0x90>
    807c:	e1a0e000 	mov	lr, r0
    8080:	e41e0008 	ldr	r0, [lr], #-8
    8084:	e150000e 	cmp	r0, lr
    8088:	02411001 	subeq	r1, r1, #1
    808c:	0afffff5 	beq	8068 <__cs3_region_size_ram+0x68>
    8090:	e5950004 	ldr	r0, [r5, #4]
    8094:	e1a03083 	lsl	r3, r3, #1
    8098:	e1530000 	cmp	r3, r0
    809c:	8a000008 	bhi	80c4 <__cs3_region_size_ram+0xc4>
    80a0:	e3530000 	cmp	r3, #0
    80a4:	0a000006 	beq	80c4 <__cs3_region_size_ram+0xc4>
    80a8:	e1a0100c 	mov	r1, ip
    80ac:	ea000001 	b	80b8 <__cs3_region_size_ram+0xb8>
    80b0:	e2811004 	add	r1, r1, #4
    80b4:	e1a03083 	lsl	r3, r3, #1
    80b8:	e1130000 	tst	r3, r0
    80bc:	1affffbb 	bne	7fb0 <_malloc_r+0x2b0>
    80c0:	eafffffa 	b	80b0 <__cs3_region_size_ram+0xb0>
    80c4:	e5958008 	ldr	r8, [r5, #8]
    80c8:	e5989004 	ldr	r9, [r8, #4]
    80cc:	e3c99003 	bic	r9, r9, #3
    80d0:	e1590004 	cmp	r9, r4
    80d4:	23a02000 	movcs	r2, #0
    80d8:	33a02001 	movcc	r2, #1
    80dc:	e0643009 	rsb	r3, r4, r9
    80e0:	e353000f 	cmp	r3, #15
    80e4:	d3822001 	orrle	r2, r2, #1
    80e8:	e3520000 	cmp	r2, #0
    80ec:	0a00006c 	beq	82a4 <__cs3_region_size_ram+0x2a4>
    80f0:	e59f31e8 	ldr	r3, [pc, #488]	; 82e0 <__cs3_region_size_ram+0x2e0>
    80f4:	e593a000 	ldr	sl, [r3]
    80f8:	e59f31e4 	ldr	r3, [pc, #484]	; 82e4 <__cs3_region_size_ram+0x2e4>
    80fc:	e5933000 	ldr	r3, [r3]
    8100:	e28aa010 	add	sl, sl, #16
    8104:	e3730001 	cmn	r3, #1
    8108:	e08aa004 	add	sl, sl, r4
    810c:	128aaeff 	addne	sl, sl, #4080	; 0xff0
    8110:	128aa00f 	addne	sl, sl, #15
    8114:	13caaeff 	bicne	sl, sl, #4080	; 0xff0
    8118:	13caa00f 	bicne	sl, sl, #15
    811c:	e1a00007 	mov	r0, r7
    8120:	e1a0100a 	mov	r1, sl
    8124:	eb0003a4 	bl	8fbc <_sbrk_r>
    8128:	e3700001 	cmn	r0, #1
    812c:	e1a06000 	mov	r6, r0
    8130:	0a00004c 	beq	8268 <__cs3_region_size_ram+0x268>
    8134:	e0883009 	add	r3, r8, r9
    8138:	e1500003 	cmp	r0, r3
    813c:	2a000001 	bcs	8148 <__cs3_region_size_ram+0x148>
    8140:	e1580005 	cmp	r8, r5
    8144:	1a000047 	bne	8268 <__cs3_region_size_ram+0x268>
    8148:	e59f1198 	ldr	r1, [pc, #408]	; 82e8 <__cs3_region_size_ram+0x2e8>
    814c:	e5912000 	ldr	r2, [r1]
    8150:	e1560003 	cmp	r6, r3
    8154:	e08a2002 	add	r2, sl, r2
    8158:	e5812000 	str	r2, [r1]
    815c:	1a000005 	bne	8178 <__cs3_region_size_ram+0x178>
    8160:	e1b01a06 	lsls	r1, r6, #20
    8164:	05953008 	ldreq	r3, [r5, #8]
    8168:	008aa009 	addeq	sl, sl, r9
    816c:	038aa001 	orreq	sl, sl, #1
    8170:	0583a004 	streq	sl, [r3, #4]
    8174:	0a000031 	beq	8240 <__cs3_region_size_ram+0x240>
    8178:	e59f1164 	ldr	r1, [pc, #356]	; 82e4 <__cs3_region_size_ram+0x2e4>
    817c:	e5910000 	ldr	r0, [r1]
    8180:	e3700001 	cmn	r0, #1
    8184:	10862002 	addne	r2, r6, r2
    8188:	159f1158 	ldrne	r1, [pc, #344]	; 82e8 <__cs3_region_size_ram+0x2e8>
    818c:	10633002 	rsbne	r3, r3, r2
    8190:	05816000 	streq	r6, [r1]
    8194:	15813000 	strne	r3, [r1]
    8198:	e2163007 	ands	r3, r6, #7
    819c:	12633008 	rsbne	r3, r3, #8
    81a0:	10866003 	addne	r6, r6, r3
    81a4:	e086a00a 	add	sl, r6, sl
    81a8:	e2833a01 	add	r3, r3, #4096	; 0x1000
    81ac:	e1a0aa0a 	lsl	sl, sl, #20
    81b0:	e043aa2a 	sub	sl, r3, sl, lsr #20
    81b4:	e1a0100a 	mov	r1, sl
    81b8:	e1a00007 	mov	r0, r7
    81bc:	eb00037e 	bl	8fbc <_sbrk_r>
    81c0:	e59f3120 	ldr	r3, [pc, #288]	; 82e8 <__cs3_region_size_ram+0x2e8>
    81c4:	e3700001 	cmn	r0, #1
    81c8:	01a00006 	moveq	r0, r6
    81cc:	e5932000 	ldr	r2, [r3]
    81d0:	03a0a000 	moveq	sl, #0
    81d4:	e0660000 	rsb	r0, r6, r0
    81d8:	e08a2002 	add	r2, sl, r2
    81dc:	e080a00a 	add	sl, r0, sl
    81e0:	e38aa001 	orr	sl, sl, #1
    81e4:	e1580005 	cmp	r8, r5
    81e8:	e5832000 	str	r2, [r3]
    81ec:	e5856008 	str	r6, [r5, #8]
    81f0:	e586a004 	str	sl, [r6, #4]
    81f4:	0a000011 	beq	8240 <__cs3_region_size_ram+0x240>
    81f8:	e359000f 	cmp	r9, #15
    81fc:	93a03001 	movls	r3, #1
    8200:	95863004 	strls	r3, [r6, #4]
    8204:	9a000017 	bls	8268 <__cs3_region_size_ram+0x268>
    8208:	e5983004 	ldr	r3, [r8, #4]
    820c:	e249900c 	sub	r9, r9, #12
    8210:	e3c99007 	bic	r9, r9, #7
    8214:	e2033001 	and	r3, r3, #1
    8218:	e1893003 	orr	r3, r9, r3
    821c:	e5883004 	str	r3, [r8, #4]
    8220:	e3a02005 	mov	r2, #5
    8224:	e0883009 	add	r3, r8, r9
    8228:	e359000f 	cmp	r9, #15
    822c:	e5832004 	str	r2, [r3, #4]
    8230:	e5832008 	str	r2, [r3, #8]
    8234:	81a00007 	movhi	r0, r7
    8238:	82881008 	addhi	r1, r8, #8
    823c:	8bfffd56 	blhi	779c <_free_r>
    8240:	e59f20a4 	ldr	r2, [pc, #164]	; 82ec <__cs3_region_size_ram+0x2ec>
    8244:	e59f309c 	ldr	r3, [pc, #156]	; 82e8 <__cs3_region_size_ram+0x2e8>
    8248:	e5921000 	ldr	r1, [r2]
    824c:	e5933000 	ldr	r3, [r3]
    8250:	e1530001 	cmp	r3, r1
    8254:	85823000 	strhi	r3, [r2]
    8258:	e59f2090 	ldr	r2, [pc, #144]	; 82f0 <__cs3_region_size_ram+0x2f0>
    825c:	e5921000 	ldr	r1, [r2]
    8260:	e1530001 	cmp	r3, r1
    8264:	85823000 	strhi	r3, [r2]
    8268:	e5953008 	ldr	r3, [r5, #8]
    826c:	e5932004 	ldr	r2, [r3, #4]
    8270:	e3c22003 	bic	r2, r2, #3
    8274:	e1520004 	cmp	r2, r4
    8278:	e0643002 	rsb	r3, r4, r2
    827c:	23a02000 	movcs	r2, #0
    8280:	33a02001 	movcc	r2, #1
    8284:	e353000f 	cmp	r3, #15
    8288:	d3822001 	orrle	r2, r2, #1
    828c:	e3520000 	cmp	r2, #0
    8290:	0a000003 	beq	82a4 <__cs3_region_size_ram+0x2a4>
    8294:	e1a00007 	mov	r0, r7
    8298:	eb000031 	bl	8364 <__malloc_unlock>
    829c:	e3a06000 	mov	r6, #0
    82a0:	ea000009 	b	82cc <__cs3_region_size_ram+0x2cc>
    82a4:	e5956008 	ldr	r6, [r5, #8]
    82a8:	e3842001 	orr	r2, r4, #1
    82ac:	e3833001 	orr	r3, r3, #1
    82b0:	e0864004 	add	r4, r6, r4
    82b4:	e5862004 	str	r2, [r6, #4]
    82b8:	e5854008 	str	r4, [r5, #8]
    82bc:	e5843004 	str	r3, [r4, #4]
    82c0:	e1a00007 	mov	r0, r7
    82c4:	eb000026 	bl	8364 <__malloc_unlock>
    82c8:	e2866008 	add	r6, r6, #8
    82cc:	e1a00006 	mov	r0, r6
    82d0:	e8bd47f0 	pop	{r4, r5, r6, r7, r8, r9, sl, lr}
    82d4:	e12fff1e 	bx	lr
    82d8:	400004a8 	.word	0x400004a8
    82dc:	00000554 	.word	0x00000554
    82e0:	400008d4 	.word	0x400008d4
    82e4:	400008b4 	.word	0x400008b4
    82e8:	400008d8 	.word	0x400008d8
    82ec:	400008d0 	.word	0x400008d0
    82f0:	400008cc 	.word	0x400008cc

000082f4 <memchr>:
    82f4:	e20110ff 	and	r1, r1, #255	; 0xff
    82f8:	ea000002 	b	8308 <memchr+0x14>
    82fc:	e4d0c001 	ldrb	ip, [r0], #1
    8300:	e15c0001 	cmp	ip, r1
    8304:	0a000004 	beq	831c <memchr+0x28>
    8308:	e2522001 	subs	r2, r2, #1
    830c:	e1a03000 	mov	r3, r0
    8310:	2afffff9 	bcs	82fc <memchr+0x8>
    8314:	e3a00000 	mov	r0, #0
    8318:	e12fff1e 	bx	lr
    831c:	e1a00003 	mov	r0, r3
    8320:	e12fff1e 	bx	lr

00008324 <memcpy>:
    8324:	e0802002 	add	r2, r0, r2
    8328:	e1a03000 	mov	r3, r0
    832c:	ea000001 	b	8338 <memcpy+0x14>
    8330:	e4d1c001 	ldrb	ip, [r1], #1
    8334:	e4c3c001 	strb	ip, [r3], #1
    8338:	e1530002 	cmp	r3, r2
    833c:	3afffffb 	bcc	8330 <memcpy+0xc>
    8340:	e12fff1e 	bx	lr

00008344 <memset>:
    8344:	e0802002 	add	r2, r0, r2
    8348:	e1a03000 	mov	r3, r0
    834c:	ea000000 	b	8354 <memset+0x10>
    8350:	e4c31001 	strb	r1, [r3], #1
    8354:	e1530002 	cmp	r3, r2
    8358:	3afffffc 	bcc	8350 <memset+0xc>
    835c:	e12fff1e 	bx	lr

00008360 <__malloc_lock>:
    8360:	e12fff1e 	bx	lr

00008364 <__malloc_unlock>:
    8364:	e12fff1e 	bx	lr

00008368 <_Balloc>:
    8368:	e590304c 	ldr	r3, [r0, #76]	; 0x4c
    836c:	e3530000 	cmp	r3, #0
    8370:	e92d4070 	push	{r4, r5, r6, lr}
    8374:	e1a05000 	mov	r5, r0
    8378:	e1a04001 	mov	r4, r1
    837c:	1a000005 	bne	8398 <_Balloc+0x30>
    8380:	e3a01004 	mov	r1, #4
    8384:	e3a02021 	mov	r2, #33	; 0x21
    8388:	eb00071e 	bl	a008 <_calloc_r>
    838c:	e3500000 	cmp	r0, #0
    8390:	e585004c 	str	r0, [r5, #76]	; 0x4c
    8394:	0a000011 	beq	83e0 <_Balloc+0x78>
    8398:	e595304c 	ldr	r3, [r5, #76]	; 0x4c
    839c:	e7930104 	ldr	r0, [r3, r4, lsl #2]
    83a0:	e3500000 	cmp	r0, #0
    83a4:	15902000 	ldrne	r2, [r0]
    83a8:	17832104 	strne	r2, [r3, r4, lsl #2]
    83ac:	1a000008 	bne	83d4 <_Balloc+0x6c>
    83b0:	e3a01001 	mov	r1, #1
    83b4:	e1a06411 	lsl	r6, r1, r4
    83b8:	e2862005 	add	r2, r6, #5
    83bc:	e1a00005 	mov	r0, r5
    83c0:	e1a02102 	lsl	r2, r2, #2
    83c4:	eb00070f 	bl	a008 <_calloc_r>
    83c8:	e3500000 	cmp	r0, #0
    83cc:	0a000003 	beq	83e0 <_Balloc+0x78>
    83d0:	e9800050 	stmib	r0, {r4, r6}
    83d4:	e3a03000 	mov	r3, #0
    83d8:	e5803010 	str	r3, [r0, #16]
    83dc:	e580300c 	str	r3, [r0, #12]
    83e0:	e8bd4070 	pop	{r4, r5, r6, lr}
    83e4:	e12fff1e 	bx	lr

000083e8 <_Bfree>:
    83e8:	e3510000 	cmp	r1, #0
    83ec:	1590304c 	ldrne	r3, [r0, #76]	; 0x4c
    83f0:	15912004 	ldrne	r2, [r1, #4]
    83f4:	17930102 	ldrne	r0, [r3, r2, lsl #2]
    83f8:	15810000 	strne	r0, [r1]
    83fc:	17831102 	strne	r1, [r3, r2, lsl #2]
    8400:	e12fff1e 	bx	lr

00008404 <__multadd>:
    8404:	e92d41f0 	push	{r4, r5, r6, r7, r8, lr}
    8408:	e1a04001 	mov	r4, r1
    840c:	e1a07003 	mov	r7, r3
    8410:	e5916010 	ldr	r6, [r1, #16]
    8414:	e2813014 	add	r3, r1, #20
    8418:	e1a05000 	mov	r5, r0
    841c:	e3a01000 	mov	r1, #0
    8420:	e1d3c0b0 	ldrh	ip, [r3]
    8424:	e1d300b2 	ldrh	r0, [r3, #2]
    8428:	e02c7c92 	mla	ip, r2, ip, r7
    842c:	e0000092 	mul	r0, r2, r0
    8430:	e080082c 	add	r0, r0, ip, lsr #16
    8434:	e1a0c80c 	lsl	ip, ip, #16
    8438:	e1a0c82c 	lsr	ip, ip, #16
    843c:	e2811001 	add	r1, r1, #1
    8440:	e1a07820 	lsr	r7, r0, #16
    8444:	e1510006 	cmp	r1, r6
    8448:	e08c0800 	add	r0, ip, r0, lsl #16
    844c:	e4830004 	str	r0, [r3], #4
    8450:	bafffff2 	blt	8420 <__multadd+0x1c>
    8454:	e3570000 	cmp	r7, #0
    8458:	0a000015 	beq	84b4 <__multadd+0xb0>
    845c:	e5943008 	ldr	r3, [r4, #8]
    8460:	e1560003 	cmp	r6, r3
    8464:	ba00000e 	blt	84a4 <__multadd+0xa0>
    8468:	e5941004 	ldr	r1, [r4, #4]
    846c:	e1a00005 	mov	r0, r5
    8470:	e2811001 	add	r1, r1, #1
    8474:	ebffffbb 	bl	8368 <_Balloc>
    8478:	e5942010 	ldr	r2, [r4, #16]
    847c:	e2822002 	add	r2, r2, #2
    8480:	e284100c 	add	r1, r4, #12
    8484:	e1a08000 	mov	r8, r0
    8488:	e1a02102 	lsl	r2, r2, #2
    848c:	e280000c 	add	r0, r0, #12
    8490:	ebffffa3 	bl	8324 <memcpy>
    8494:	e1a01004 	mov	r1, r4
    8498:	e1a00005 	mov	r0, r5
    849c:	ebffffd1 	bl	83e8 <_Bfree>
    84a0:	e1a04008 	mov	r4, r8
    84a4:	e0843106 	add	r3, r4, r6, lsl #2
    84a8:	e2866001 	add	r6, r6, #1
    84ac:	e5837014 	str	r7, [r3, #20]
    84b0:	e5846010 	str	r6, [r4, #16]
    84b4:	e1a00004 	mov	r0, r4
    84b8:	e8bd41f0 	pop	{r4, r5, r6, r7, r8, lr}
    84bc:	e12fff1e 	bx	lr

000084c0 <__s2b>:
    84c0:	e92d45f8 	push	{r3, r4, r5, r6, r7, r8, sl, lr}
    84c4:	e1a06000 	mov	r6, r0
    84c8:	e1a05001 	mov	r5, r1
    84cc:	e2830008 	add	r0, r3, #8
    84d0:	e3a01009 	mov	r1, #9
    84d4:	e1a08003 	mov	r8, r3
    84d8:	e1a07002 	mov	r7, r2
    84dc:	eb000cf7 	bl	b8c0 <__aeabi_idiv>
    84e0:	e3a03001 	mov	r3, #1
    84e4:	e3a01000 	mov	r1, #0
    84e8:	ea000001 	b	84f4 <__s2b+0x34>
    84ec:	e1a03083 	lsl	r3, r3, #1
    84f0:	e2811001 	add	r1, r1, #1
    84f4:	e1500003 	cmp	r0, r3
    84f8:	cafffffb 	bgt	84ec <__s2b+0x2c>
    84fc:	e1a00006 	mov	r0, r6
    8500:	ebffff98 	bl	8368 <_Balloc>
    8504:	e59d3020 	ldr	r3, [sp, #32]
    8508:	e3570009 	cmp	r7, #9
    850c:	e5803014 	str	r3, [r0, #20]
    8510:	e3a03001 	mov	r3, #1
    8514:	e1a01000 	mov	r1, r0
    8518:	e5803010 	str	r3, [r0, #16]
    851c:	d285500a 	addle	r5, r5, #10
    8520:	d3a04009 	movle	r4, #9
    8524:	da000014 	ble	857c <__s2b+0xbc>
    8528:	e285a009 	add	sl, r5, #9
    852c:	e3a04009 	mov	r4, #9
    8530:	e7d53004 	ldrb	r3, [r5, r4]
    8534:	e1a00006 	mov	r0, r6
    8538:	e3a0200a 	mov	r2, #10
    853c:	e2433030 	sub	r3, r3, #48	; 0x30
    8540:	ebffffaf 	bl	8404 <__multadd>
    8544:	e2844001 	add	r4, r4, #1
    8548:	e1540007 	cmp	r4, r7
    854c:	e1a01000 	mov	r1, r0
    8550:	1afffff6 	bne	8530 <__s2b+0x70>
    8554:	e08a5004 	add	r5, sl, r4
    8558:	e2455008 	sub	r5, r5, #8
    855c:	ea000006 	b	857c <__s2b+0xbc>
    8560:	e4d53001 	ldrb	r3, [r5], #1
    8564:	e1a00006 	mov	r0, r6
    8568:	e3a0200a 	mov	r2, #10
    856c:	e2433030 	sub	r3, r3, #48	; 0x30
    8570:	ebffffa3 	bl	8404 <__multadd>
    8574:	e2844001 	add	r4, r4, #1
    8578:	e1a01000 	mov	r1, r0
    857c:	e1540008 	cmp	r4, r8
    8580:	bafffff6 	blt	8560 <__s2b+0xa0>
    8584:	e1a00001 	mov	r0, r1
    8588:	e8bd45f8 	pop	{r3, r4, r5, r6, r7, r8, sl, lr}
    858c:	e12fff1e 	bx	lr

00008590 <__hi0bits>:
    8590:	e1a02820 	lsr	r2, r0, #16
    8594:	e1a02802 	lsl	r2, r2, #16
    8598:	e3520000 	cmp	r2, #0
    859c:	e1a03000 	mov	r3, r0
    85a0:	01a03800 	lsleq	r3, r0, #16
    85a4:	13a00000 	movne	r0, #0
    85a8:	03a00010 	moveq	r0, #16
    85ac:	e31304ff 	tst	r3, #-16777216	; 0xff000000
    85b0:	01a03403 	lsleq	r3, r3, #8
    85b4:	02800008 	addeq	r0, r0, #8
    85b8:	e313020f 	tst	r3, #-268435456	; 0xf0000000
    85bc:	01a03203 	lsleq	r3, r3, #4
    85c0:	02800004 	addeq	r0, r0, #4
    85c4:	e3130103 	tst	r3, #-1073741824	; 0xc0000000
    85c8:	01a03103 	lsleq	r3, r3, #2
    85cc:	02800002 	addeq	r0, r0, #2
    85d0:	e3530000 	cmp	r3, #0
    85d4:	b12fff1e 	bxlt	lr
    85d8:	e3130101 	tst	r3, #1073741824	; 0x40000000
    85dc:	12800001 	addne	r0, r0, #1
    85e0:	03a00020 	moveq	r0, #32
    85e4:	e12fff1e 	bx	lr

000085e8 <__lo0bits>:
    85e8:	e5903000 	ldr	r3, [r0]
    85ec:	e1a02000 	mov	r2, r0
    85f0:	e2130007 	ands	r0, r3, #7
    85f4:	0a00000a 	beq	8624 <__lo0bits+0x3c>
    85f8:	e3130001 	tst	r3, #1
    85fc:	13a00000 	movne	r0, #0
    8600:	112fff1e 	bxne	lr
    8604:	e3130002 	tst	r3, #2
    8608:	11a030a3 	lsrne	r3, r3, #1
    860c:	01a03123 	lsreq	r3, r3, #2
    8610:	15823000 	strne	r3, [r2]
    8614:	13a00001 	movne	r0, #1
    8618:	05823000 	streq	r3, [r2]
    861c:	03a00002 	moveq	r0, #2
    8620:	e12fff1e 	bx	lr
    8624:	e1b01803 	lsls	r1, r3, #16
    8628:	01a03823 	lsreq	r3, r3, #16
    862c:	03a00010 	moveq	r0, #16
    8630:	e31300ff 	tst	r3, #255	; 0xff
    8634:	01a03423 	lsreq	r3, r3, #8
    8638:	02800008 	addeq	r0, r0, #8
    863c:	e313000f 	tst	r3, #15
    8640:	01a03223 	lsreq	r3, r3, #4
    8644:	02800004 	addeq	r0, r0, #4
    8648:	e3130003 	tst	r3, #3
    864c:	01a03123 	lsreq	r3, r3, #2
    8650:	02800002 	addeq	r0, r0, #2
    8654:	e3130001 	tst	r3, #1
    8658:	1a000002 	bne	8668 <__lo0bits+0x80>
    865c:	e1b030a3 	lsrs	r3, r3, #1
    8660:	0a000002 	beq	8670 <__lo0bits+0x88>
    8664:	e2800001 	add	r0, r0, #1
    8668:	e5823000 	str	r3, [r2]
    866c:	e12fff1e 	bx	lr
    8670:	e3a00020 	mov	r0, #32
    8674:	e12fff1e 	bx	lr

00008678 <__i2b>:
    8678:	e92d4010 	push	{r4, lr}
    867c:	e1a04001 	mov	r4, r1
    8680:	e3a01001 	mov	r1, #1
    8684:	ebffff37 	bl	8368 <_Balloc>
    8688:	e3a02001 	mov	r2, #1
    868c:	e5804014 	str	r4, [r0, #20]
    8690:	e5802010 	str	r2, [r0, #16]
    8694:	e8bd4010 	pop	{r4, lr}
    8698:	e12fff1e 	bx	lr

0000869c <__multiply>:
    869c:	e92d4ff0 	push	{r4, r5, r6, r7, r8, r9, sl, fp, lr}
    86a0:	e1a06002 	mov	r6, r2
    86a4:	e5963010 	ldr	r3, [r6, #16]
    86a8:	e5912010 	ldr	r2, [r1, #16]
    86ac:	e1520003 	cmp	r2, r3
    86b0:	e1a05001 	mov	r5, r1
    86b4:	b1a05006 	movlt	r5, r6
    86b8:	b1a06001 	movlt	r6, r1
    86bc:	e595a010 	ldr	sl, [r5, #16]
    86c0:	e5968010 	ldr	r8, [r6, #16]
    86c4:	e995000a 	ldmib	r5, {r1, r3}
    86c8:	e088400a 	add	r4, r8, sl
    86cc:	e1540003 	cmp	r4, r3
    86d0:	e24dd014 	sub	sp, sp, #20
    86d4:	c2811001 	addgt	r1, r1, #1
    86d8:	ebffff22 	bl	8368 <_Balloc>
    86dc:	e0802104 	add	r2, r0, r4, lsl #2
    86e0:	e2822014 	add	r2, r2, #20
    86e4:	e2803014 	add	r3, r0, #20
    86e8:	e58d2004 	str	r2, [sp, #4]
    86ec:	e1a02003 	mov	r2, r3
    86f0:	ea000001 	b	86fc <__multiply+0x60>
    86f4:	e3a01000 	mov	r1, #0
    86f8:	e4821004 	str	r1, [r2], #4
    86fc:	e59d1004 	ldr	r1, [sp, #4]
    8700:	e1520001 	cmp	r2, r1
    8704:	3afffffa 	bcc	86f4 <__multiply+0x58>
    8708:	e2857014 	add	r7, r5, #20
    870c:	e0868108 	add	r8, r6, r8, lsl #2
    8710:	e085510a 	add	r5, r5, sl, lsl #2
    8714:	e2855014 	add	r5, r5, #20
    8718:	e2888014 	add	r8, r8, #20
    871c:	e58d5008 	str	r5, [sp, #8]
    8720:	e58d800c 	str	r8, [sp, #12]
    8724:	e2862014 	add	r2, r6, #20
    8728:	ea000036 	b	8808 <__multiply+0x16c>
    872c:	e4926004 	ldr	r6, [r2], #4
    8730:	e1a06806 	lsl	r6, r6, #16
    8734:	e1b06826 	lsrs	r6, r6, #16
    8738:	0a000015 	beq	8794 <__multiply+0xf8>
    873c:	e1a05007 	mov	r5, r7
    8740:	e1a01003 	mov	r1, r3
    8744:	e3a0c000 	mov	ip, #0
    8748:	e4958004 	ldr	r8, [r5], #4
    874c:	e1d1a0b0 	ldrh	sl, [r1]
    8750:	e1a09808 	lsl	r9, r8, #16
    8754:	e1a09829 	lsr	r9, r9, #16
    8758:	e02aa996 	mla	sl, r6, r9, sl
    875c:	e08aa00c 	add	sl, sl, ip
    8760:	e1d1c0b2 	ldrh	ip, [r1, #2]
    8764:	e1a08828 	lsr	r8, r8, #16
    8768:	e028c896 	mla	r8, r6, r8, ip
    876c:	e088882a 	add	r8, r8, sl, lsr #16
    8770:	e1a0a80a 	lsl	sl, sl, #16
    8774:	e1a0a82a 	lsr	sl, sl, #16
    8778:	e1a0c828 	lsr	ip, r8, #16
    877c:	e18a8808 	orr	r8, sl, r8, lsl #16
    8780:	e4818004 	str	r8, [r1], #4
    8784:	e59d8008 	ldr	r8, [sp, #8]
    8788:	e1580005 	cmp	r8, r5
    878c:	8affffed 	bhi	8748 <__multiply+0xac>
    8790:	e581c000 	str	ip, [r1]
    8794:	e15260b2 	ldrh	r6, [r2, #-2]
    8798:	e3560000 	cmp	r6, #0
    879c:	0a000018 	beq	8804 <__multiply+0x168>
    87a0:	e593c000 	ldr	ip, [r3]
    87a4:	e1a05007 	mov	r5, r7
    87a8:	e1a0a003 	mov	sl, r3
    87ac:	e1a01003 	mov	r1, r3
    87b0:	e3a08000 	mov	r8, #0
    87b4:	e1d5b0b0 	ldrh	fp, [r5]
    87b8:	e1d190b2 	ldrh	r9, [r1, #2]
    87bc:	e0299b96 	mla	r9, r6, fp, r9
    87c0:	e1a0c80c 	lsl	ip, ip, #16
    87c4:	e0898008 	add	r8, r9, r8
    87c8:	e1a0c82c 	lsr	ip, ip, #16
    87cc:	e18cc808 	orr	ip, ip, r8, lsl #16
    87d0:	e481c004 	str	ip, [r1], #4
    87d4:	e5bac004 	ldr	ip, [sl, #4]!
    87d8:	e4959004 	ldr	r9, [r5], #4
    87dc:	e1a0c80c 	lsl	ip, ip, #16
    87e0:	e1a09829 	lsr	r9, r9, #16
    87e4:	e1a0c82c 	lsr	ip, ip, #16
    87e8:	e02cc996 	mla	ip, r6, r9, ip
    87ec:	e59d9008 	ldr	r9, [sp, #8]
    87f0:	e08cc828 	add	ip, ip, r8, lsr #16
    87f4:	e1590005 	cmp	r9, r5
    87f8:	e1a0882c 	lsr	r8, ip, #16
    87fc:	8affffec 	bhi	87b4 <__multiply+0x118>
    8800:	e581c000 	str	ip, [r1]
    8804:	e2833004 	add	r3, r3, #4
    8808:	e59d100c 	ldr	r1, [sp, #12]
    880c:	e1510002 	cmp	r1, r2
    8810:	8affffc5 	bhi	872c <__multiply+0x90>
    8814:	e59d3004 	ldr	r3, [sp, #4]
    8818:	ea000000 	b	8820 <__multiply+0x184>
    881c:	e2444001 	sub	r4, r4, #1
    8820:	e3540000 	cmp	r4, #0
    8824:	da000002 	ble	8834 <__multiply+0x198>
    8828:	e5332004 	ldr	r2, [r3, #-4]!
    882c:	e3520000 	cmp	r2, #0
    8830:	0afffff9 	beq	881c <__multiply+0x180>
    8834:	e5804010 	str	r4, [r0, #16]
    8838:	e28dd014 	add	sp, sp, #20
    883c:	e8bd4ff0 	pop	{r4, r5, r6, r7, r8, r9, sl, fp, lr}
    8840:	e12fff1e 	bx	lr

00008844 <__pow5mult>:
    8844:	e2123003 	ands	r3, r2, #3
    8848:	e92d41f0 	push	{r4, r5, r6, r7, r8, lr}
    884c:	e1a04000 	mov	r4, r0
    8850:	e1a07001 	mov	r7, r1
    8854:	e1a05002 	mov	r5, r2
    8858:	0a000005 	beq	8874 <__pow5mult+0x30>
    885c:	e59f20b4 	ldr	r2, [pc, #180]	; 8918 <__pow5mult+0xd4>
    8860:	e2433001 	sub	r3, r3, #1
    8864:	e7922103 	ldr	r2, [r2, r3, lsl #2]
    8868:	e3a03000 	mov	r3, #0
    886c:	ebfffee4 	bl	8404 <__multadd>
    8870:	e1a07000 	mov	r7, r0
    8874:	e1b05145 	asrs	r5, r5, #2
    8878:	0a000023 	beq	890c <__pow5mult+0xc8>
    887c:	e5946048 	ldr	r6, [r4, #72]	; 0x48
    8880:	e3560000 	cmp	r6, #0
    8884:	1a000008 	bne	88ac <__pow5mult+0x68>
    8888:	e1a00004 	mov	r0, r4
    888c:	e59f1088 	ldr	r1, [pc, #136]	; 891c <__pow5mult+0xd8>
    8890:	ebffff78 	bl	8678 <__i2b>
    8894:	e3a03000 	mov	r3, #0
    8898:	e5840048 	str	r0, [r4, #72]	; 0x48
    889c:	e1a06000 	mov	r6, r0
    88a0:	e5803000 	str	r3, [r0]
    88a4:	ea000000 	b	88ac <__pow5mult+0x68>
    88a8:	e1a06000 	mov	r6, r0
    88ac:	e3150001 	tst	r5, #1
    88b0:	0a000008 	beq	88d8 <__pow5mult+0x94>
    88b4:	e1a01007 	mov	r1, r7
    88b8:	e1a02006 	mov	r2, r6
    88bc:	e1a00004 	mov	r0, r4
    88c0:	ebffff75 	bl	869c <__multiply>
    88c4:	e1a01007 	mov	r1, r7
    88c8:	e1a08000 	mov	r8, r0
    88cc:	e1a00004 	mov	r0, r4
    88d0:	ebfffec4 	bl	83e8 <_Bfree>
    88d4:	e1a07008 	mov	r7, r8
    88d8:	e1b050c5 	asrs	r5, r5, #1
    88dc:	0a00000a 	beq	890c <__pow5mult+0xc8>
    88e0:	e5968000 	ldr	r8, [r6]
    88e4:	e3580000 	cmp	r8, #0
    88e8:	11a00008 	movne	r0, r8
    88ec:	1affffed 	bne	88a8 <__pow5mult+0x64>
    88f0:	e1a00004 	mov	r0, r4
    88f4:	e1a01006 	mov	r1, r6
    88f8:	e1a02006 	mov	r2, r6
    88fc:	ebffff66 	bl	869c <__multiply>
    8900:	e5860000 	str	r0, [r6]
    8904:	e5808000 	str	r8, [r0]
    8908:	eaffffe6 	b	88a8 <__pow5mult+0x64>
    890c:	e1a00007 	mov	r0, r7
    8910:	e8bd41f0 	pop	{r4, r5, r6, r7, r8, lr}
    8914:	e12fff1e 	bx	lr
    8918:	0000cff8 	.word	0x0000cff8
    891c:	00000271 	.word	0x00000271

00008920 <__lshift>:
    8920:	e92d45f8 	push	{r3, r4, r5, r6, r7, r8, sl, lr}
    8924:	e1a04001 	mov	r4, r1
    8928:	e5946010 	ldr	r6, [r4, #16]
    892c:	e1a0a2c2 	asr	sl, r2, #5
    8930:	e2866001 	add	r6, r6, #1
    8934:	e1a05000 	mov	r5, r0
    8938:	e1a08002 	mov	r8, r2
    893c:	e5911004 	ldr	r1, [r1, #4]
    8940:	e086600a 	add	r6, r6, sl
    8944:	e5943008 	ldr	r3, [r4, #8]
    8948:	ea000001 	b	8954 <__lshift+0x34>
    894c:	e2811001 	add	r1, r1, #1
    8950:	e1a03083 	lsl	r3, r3, #1
    8954:	e1560003 	cmp	r6, r3
    8958:	cafffffb 	bgt	894c <__lshift+0x2c>
    895c:	e1a00005 	mov	r0, r5
    8960:	ebfffe80 	bl	8368 <_Balloc>
    8964:	e3a02000 	mov	r2, #0
    8968:	e1a07000 	mov	r7, r0
    896c:	e2803014 	add	r3, r0, #20
    8970:	ea000002 	b	8980 <__lshift+0x60>
    8974:	e3a01000 	mov	r1, #0
    8978:	e4831004 	str	r1, [r3], #4
    897c:	e2822001 	add	r2, r2, #1
    8980:	e152000a 	cmp	r2, sl
    8984:	bafffffa 	blt	8974 <__lshift+0x54>
    8988:	e5940010 	ldr	r0, [r4, #16]
    898c:	e218801f 	ands	r8, r8, #31
    8990:	e0840100 	add	r0, r4, r0, lsl #2
    8994:	e2841014 	add	r1, r4, #20
    8998:	e2800014 	add	r0, r0, #20
    899c:	0a00000c 	beq	89d4 <__lshift+0xb4>
    89a0:	e268c020 	rsb	ip, r8, #32
    89a4:	e3a02000 	mov	r2, #0
    89a8:	e591e000 	ldr	lr, [r1]
    89ac:	e182281e 	orr	r2, r2, lr, lsl r8
    89b0:	e4832004 	str	r2, [r3], #4
    89b4:	e4912004 	ldr	r2, [r1], #4
    89b8:	e1500001 	cmp	r0, r1
    89bc:	e1a02c32 	lsr	r2, r2, ip
    89c0:	8afffff8 	bhi	89a8 <__lshift+0x88>
    89c4:	e3520000 	cmp	r2, #0
    89c8:	e5832000 	str	r2, [r3]
    89cc:	12866001 	addne	r6, r6, #1
    89d0:	ea000003 	b	89e4 <__lshift+0xc4>
    89d4:	e4912004 	ldr	r2, [r1], #4
    89d8:	e1500001 	cmp	r0, r1
    89dc:	e4832004 	str	r2, [r3], #4
    89e0:	8afffffb 	bhi	89d4 <__lshift+0xb4>
    89e4:	e2466001 	sub	r6, r6, #1
    89e8:	e1a00005 	mov	r0, r5
    89ec:	e5876010 	str	r6, [r7, #16]
    89f0:	e1a01004 	mov	r1, r4
    89f4:	ebfffe7b 	bl	83e8 <_Bfree>
    89f8:	e1a00007 	mov	r0, r7
    89fc:	e8bd45f8 	pop	{r3, r4, r5, r6, r7, r8, sl, lr}
    8a00:	e12fff1e 	bx	lr

00008a04 <__mcmp>:
    8a04:	e1a03000 	mov	r3, r0
    8a08:	e5912010 	ldr	r2, [r1, #16]
    8a0c:	e5900010 	ldr	r0, [r0, #16]
    8a10:	e0500002 	subs	r0, r0, r2
    8a14:	e52d4004 	push	{r4}		; (str r4, [sp, #-4]!)
    8a18:	1a000011 	bne	8a64 <__mcmp+0x60>
    8a1c:	e2822004 	add	r2, r2, #4
    8a20:	e1a02102 	lsl	r2, r2, #2
    8a24:	e283c014 	add	ip, r3, #20
    8a28:	e0833002 	add	r3, r3, r2
    8a2c:	e0812002 	add	r2, r1, r2
    8a30:	e2833004 	add	r3, r3, #4
    8a34:	e2822004 	add	r2, r2, #4
    8a38:	e5334004 	ldr	r4, [r3, #-4]!
    8a3c:	e5321004 	ldr	r1, [r2, #-4]!
    8a40:	e1540001 	cmp	r4, r1
    8a44:	0a000002 	beq	8a54 <__mcmp+0x50>
    8a48:	33e00000 	mvncc	r0, #0
    8a4c:	2a000003 	bcs	8a60 <__mcmp+0x5c>
    8a50:	ea000003 	b	8a64 <__mcmp+0x60>
    8a54:	e15c0003 	cmp	ip, r3
    8a58:	3afffff6 	bcc	8a38 <__mcmp+0x34>
    8a5c:	ea000000 	b	8a64 <__mcmp+0x60>
    8a60:	e3a00001 	mov	r0, #1
    8a64:	e49d4004 	pop	{r4}		; (ldr r4, [sp], #4)
    8a68:	e12fff1e 	bx	lr

00008a6c <__mdiff>:
    8a6c:	e92d47f0 	push	{r4, r5, r6, r7, r8, r9, sl, lr}
    8a70:	e1a05000 	mov	r5, r0
    8a74:	e1a04001 	mov	r4, r1
    8a78:	e1a00001 	mov	r0, r1
    8a7c:	e1a01002 	mov	r1, r2
    8a80:	e1a06002 	mov	r6, r2
    8a84:	ebffffde 	bl	8a04 <__mcmp>
    8a88:	e2507000 	subs	r7, r0, #0
    8a8c:	1a000006 	bne	8aac <__mdiff+0x40>
    8a90:	e1a00005 	mov	r0, r5
    8a94:	e1a01007 	mov	r1, r7
    8a98:	ebfffe32 	bl	8368 <_Balloc>
    8a9c:	e3a03001 	mov	r3, #1
    8aa0:	e5803010 	str	r3, [r0, #16]
    8aa4:	e5807014 	str	r7, [r0, #20]
    8aa8:	ea000038 	b	8b90 <__mdiff+0x124>
    8aac:	b1a03004 	movlt	r3, r4
    8ab0:	b1a04006 	movlt	r4, r6
    8ab4:	e1a00005 	mov	r0, r5
    8ab8:	e5941004 	ldr	r1, [r4, #4]
    8abc:	b1a06003 	movlt	r6, r3
    8ac0:	a3a07000 	movge	r7, #0
    8ac4:	b3a07001 	movlt	r7, #1
    8ac8:	ebfffe26 	bl	8368 <_Balloc>
    8acc:	e5943010 	ldr	r3, [r4, #16]
    8ad0:	e5968010 	ldr	r8, [r6, #16]
    8ad4:	e580700c 	str	r7, [r0, #12]
    8ad8:	e0868108 	add	r8, r6, r8, lsl #2
    8adc:	e0847103 	add	r7, r4, r3, lsl #2
    8ae0:	e2877014 	add	r7, r7, #20
    8ae4:	e2888014 	add	r8, r8, #20
    8ae8:	e2844014 	add	r4, r4, #20
    8aec:	e2866014 	add	r6, r6, #20
    8af0:	e2805014 	add	r5, r0, #20
    8af4:	e3a02000 	mov	r2, #0
    8af8:	e4961004 	ldr	r1, [r6], #4
    8afc:	e494c004 	ldr	ip, [r4], #4
    8b00:	e1a0a801 	lsl	sl, r1, #16
    8b04:	e1a0980c 	lsl	r9, ip, #16
    8b08:	e1a0a82a 	lsr	sl, sl, #16
    8b0c:	e06aa829 	rsb	sl, sl, r9, lsr #16
    8b10:	e1a01821 	lsr	r1, r1, #16
    8b14:	e08aa002 	add	sl, sl, r2
    8b18:	e061182c 	rsb	r1, r1, ip, lsr #16
    8b1c:	e081184a 	add	r1, r1, sl, asr #16
    8b20:	e1a0a80a 	lsl	sl, sl, #16
    8b24:	e1a0a82a 	lsr	sl, sl, #16
    8b28:	e1a02841 	asr	r2, r1, #16
    8b2c:	e18a1801 	orr	r1, sl, r1, lsl #16
    8b30:	e4851004 	str	r1, [r5], #4
    8b34:	e1580006 	cmp	r8, r6
    8b38:	e1a0c004 	mov	ip, r4
    8b3c:	e1a01005 	mov	r1, r5
    8b40:	8affffec 	bhi	8af8 <__mdiff+0x8c>
    8b44:	ea000009 	b	8b70 <__mdiff+0x104>
    8b48:	e49c4004 	ldr	r4, [ip], #4
    8b4c:	e1a05804 	lsl	r5, r4, #16
    8b50:	e0825825 	add	r5, r2, r5, lsr #16
    8b54:	e1a04824 	lsr	r4, r4, #16
    8b58:	e0844845 	add	r4, r4, r5, asr #16
    8b5c:	e1a05805 	lsl	r5, r5, #16
    8b60:	e1a05825 	lsr	r5, r5, #16
    8b64:	e1a02844 	asr	r2, r4, #16
    8b68:	e1854804 	orr	r4, r5, r4, lsl #16
    8b6c:	e4814004 	str	r4, [r1], #4
    8b70:	e15c0007 	cmp	ip, r7
    8b74:	3afffff3 	bcc	8b48 <__mdiff+0xdc>
    8b78:	ea000000 	b	8b80 <__mdiff+0x114>
    8b7c:	e2433001 	sub	r3, r3, #1
    8b80:	e5312004 	ldr	r2, [r1, #-4]!
    8b84:	e3520000 	cmp	r2, #0
    8b88:	0afffffb 	beq	8b7c <__mdiff+0x110>
    8b8c:	e5803010 	str	r3, [r0, #16]
    8b90:	e8bd47f0 	pop	{r4, r5, r6, r7, r8, r9, sl, lr}
    8b94:	e12fff1e 	bx	lr

00008b98 <__ulp>:
    8b98:	e59f3050 	ldr	r3, [pc, #80]	; 8bf0 <__ulp+0x58>
    8b9c:	e0013003 	and	r3, r1, r3
    8ba0:	e243350d 	sub	r3, r3, #54525952	; 0x3400000
    8ba4:	e3530000 	cmp	r3, #0
    8ba8:	c1a01003 	movgt	r1, r3
    8bac:	ca000005 	bgt	8bc8 <__ulp+0x30>
    8bb0:	e2633000 	rsb	r3, r3, #0
    8bb4:	e1a03a43 	asr	r3, r3, #20
    8bb8:	e3530013 	cmp	r3, #19
    8bbc:	ca000003 	bgt	8bd0 <__ulp+0x38>
    8bc0:	e3a02702 	mov	r2, #524288	; 0x80000
    8bc4:	e1a01352 	asr	r1, r2, r3
    8bc8:	e3a00000 	mov	r0, #0
    8bcc:	e12fff1e 	bx	lr
    8bd0:	e2432014 	sub	r2, r3, #20
    8bd4:	e352001e 	cmp	r2, #30
    8bd8:	e3a03001 	mov	r3, #1
    8bdc:	d262201f 	rsble	r2, r2, #31
    8be0:	d1a03213 	lslle	r3, r3, r2
    8be4:	e3a01000 	mov	r1, #0
    8be8:	e1a00003 	mov	r0, r3
    8bec:	e12fff1e 	bx	lr
    8bf0:	7ff00000 	.word	0x7ff00000

00008bf4 <__b2d>:
    8bf4:	e5903010 	ldr	r3, [r0, #16]
    8bf8:	e2833004 	add	r3, r3, #4
    8bfc:	e92d41f0 	push	{r4, r5, r6, r7, r8, lr}
    8c00:	e7905103 	ldr	r5, [r0, r3, lsl #2]
    8c04:	e0804103 	add	r4, r0, r3, lsl #2
    8c08:	e2806014 	add	r6, r0, #20
    8c0c:	e1a00005 	mov	r0, r5
    8c10:	e1a08001 	mov	r8, r1
    8c14:	ebfffe5d 	bl	8590 <__hi0bits>
    8c18:	e2603020 	rsb	r3, r0, #32
    8c1c:	e350000a 	cmp	r0, #10
    8c20:	e1a07004 	mov	r7, r4
    8c24:	e5883000 	str	r3, [r8]
    8c28:	ca00000a 	bgt	8c58 <__b2d+0x64>
    8c2c:	e260100b 	rsb	r1, r0, #11
    8c30:	e1a0c135 	lsr	ip, r5, r1
    8c34:	e2800015 	add	r0, r0, #21
    8c38:	e1a05015 	lsl	r5, r5, r0
    8c3c:	e38cc5ff 	orr	ip, ip, #1069547520	; 0x3fc00000
    8c40:	e1540006 	cmp	r4, r6
    8c44:	e38c3603 	orr	r3, ip, #3145728	; 0x300000
    8c48:	8514c004 	ldrhi	ip, [r4, #-4]
    8c4c:	93a0c000 	movls	ip, #0
    8c50:	e185213c 	orr	r2, r5, ip, lsr r1
    8c54:	ea000012 	b	8ca4 <__b2d+0xb0>
    8c58:	e1540006 	cmp	r4, r6
    8c5c:	85171004 	ldrhi	r1, [r7, #-4]
    8c60:	93a01000 	movls	r1, #0
    8c64:	82444004 	subhi	r4, r4, #4
    8c68:	e250000b 	subs	r0, r0, #11
    8c6c:	038555ff 	orreq	r5, r5, #1069547520	; 0x3fc00000
    8c70:	03853603 	orreq	r3, r5, #3145728	; 0x300000
    8c74:	01a02001 	moveq	r2, r1
    8c78:	0a000009 	beq	8ca4 <__b2d+0xb0>
    8c7c:	e1a05015 	lsl	r5, r5, r0
    8c80:	e260c020 	rsb	ip, r0, #32
    8c84:	e1a00011 	lsl	r0, r1, r0
    8c88:	e1540006 	cmp	r4, r6
    8c8c:	e38555ff 	orr	r5, r5, #1069547520	; 0x3fc00000
    8c90:	85144004 	ldrhi	r4, [r4, #-4]
    8c94:	e3855603 	orr	r5, r5, #3145728	; 0x300000
    8c98:	93a04000 	movls	r4, #0
    8c9c:	e1853c31 	orr	r3, r5, r1, lsr ip
    8ca0:	e1802c34 	orr	r2, r0, r4, lsr ip
    8ca4:	e1a00002 	mov	r0, r2
    8ca8:	e1a01003 	mov	r1, r3
    8cac:	e8bd41f0 	pop	{r4, r5, r6, r7, r8, lr}
    8cb0:	e12fff1e 	bx	lr

00008cb4 <__d2b>:
    8cb4:	e92d45f7 	push	{r0, r1, r2, r4, r5, r6, r7, r8, sl, lr}
    8cb8:	e3a01001 	mov	r1, #1
    8cbc:	e1a07003 	mov	r7, r3
    8cc0:	e1a06002 	mov	r6, r2
    8cc4:	e59d5028 	ldr	r5, [sp, #40]	; 0x28
    8cc8:	e59d402c 	ldr	r4, [sp, #44]	; 0x2c
    8ccc:	ebfffda5 	bl	8368 <_Balloc>
    8cd0:	e3c7a102 	bic	sl, r7, #-2147483648	; 0x80000000
    8cd4:	e3c734ff 	bic	r3, r7, #-16777216	; 0xff000000
    8cd8:	e3c3360f 	bic	r3, r3, #15728640	; 0xf00000
    8cdc:	e1b0aa2a 	lsrs	sl, sl, #20
    8ce0:	e58d3000 	str	r3, [sp]
    8ce4:	13833601 	orrne	r3, r3, #1048576	; 0x100000
    8ce8:	158d3000 	strne	r3, [sp]
    8cec:	e3560000 	cmp	r6, #0
    8cf0:	e1a08000 	mov	r8, r0
    8cf4:	0a000012 	beq	8d44 <__d2b+0x90>
    8cf8:	e28d0008 	add	r0, sp, #8
    8cfc:	e5206004 	str	r6, [r0, #-4]!
    8d00:	ebfffe38 	bl	85e8 <__lo0bits>
    8d04:	e3500000 	cmp	r0, #0
    8d08:	159d2000 	ldrne	r2, [sp]
    8d0c:	e59d3004 	ldr	r3, [sp, #4]
    8d10:	12601020 	rsbne	r1, r0, #32
    8d14:	11833112 	orrne	r3, r3, r2, lsl r1
    8d18:	11a02032 	lsrne	r2, r2, r0
    8d1c:	158d2000 	strne	r2, [sp]
    8d20:	e59d6000 	ldr	r6, [sp]
    8d24:	15883014 	strne	r3, [r8, #20]
    8d28:	05883014 	streq	r3, [r8, #20]
    8d2c:	e3560000 	cmp	r6, #0
    8d30:	e5886018 	str	r6, [r8, #24]
    8d34:	03a06001 	moveq	r6, #1
    8d38:	13a06002 	movne	r6, #2
    8d3c:	e5886010 	str	r6, [r8, #16]
    8d40:	ea000006 	b	8d60 <__d2b+0xac>
    8d44:	e1a0000d 	mov	r0, sp
    8d48:	ebfffe26 	bl	85e8 <__lo0bits>
    8d4c:	e59d3000 	ldr	r3, [sp]
    8d50:	e3a06001 	mov	r6, #1
    8d54:	e5883014 	str	r3, [r8, #20]
    8d58:	e5886010 	str	r6, [r8, #16]
    8d5c:	e2800020 	add	r0, r0, #32
    8d60:	e35a0000 	cmp	sl, #0
    8d64:	0a000006 	beq	8d84 <__d2b+0xd0>
    8d68:	e24aae43 	sub	sl, sl, #1072	; 0x430
    8d6c:	e24aa003 	sub	sl, sl, #3
    8d70:	e08aa000 	add	sl, sl, r0
    8d74:	e2600035 	rsb	r0, r0, #53	; 0x35
    8d78:	e585a000 	str	sl, [r5]
    8d7c:	e5840000 	str	r0, [r4]
    8d80:	ea000008 	b	8da8 <__d2b+0xf4>
    8d84:	e2400e43 	sub	r0, r0, #1072	; 0x430
    8d88:	e0883106 	add	r3, r8, r6, lsl #2
    8d8c:	e2400002 	sub	r0, r0, #2
    8d90:	e5850000 	str	r0, [r5]
    8d94:	e5930010 	ldr	r0, [r3, #16]
    8d98:	ebfffdfc 	bl	8590 <__hi0bits>
    8d9c:	e1a06286 	lsl	r6, r6, #5
    8da0:	e0606006 	rsb	r6, r0, r6
    8da4:	e5846000 	str	r6, [r4]
    8da8:	e1a00008 	mov	r0, r8
    8dac:	e8bd45fe 	pop	{r1, r2, r3, r4, r5, r6, r7, r8, sl, lr}
    8db0:	e12fff1e 	bx	lr

00008db4 <__ratio>:
    8db4:	e92d40f7 	push	{r0, r1, r2, r4, r5, r6, r7, lr}
    8db8:	e1a06001 	mov	r6, r1
    8dbc:	e28d1004 	add	r1, sp, #4
    8dc0:	e1a07000 	mov	r7, r0
    8dc4:	ebffff8a 	bl	8bf4 <__b2d>
    8dc8:	e1a05001 	mov	r5, r1
    8dcc:	e1a04000 	mov	r4, r0
    8dd0:	e1a0100d 	mov	r1, sp
    8dd4:	e1a00006 	mov	r0, r6
    8dd8:	ebffff85 	bl	8bf4 <__b2d>
    8ddc:	e1a03001 	mov	r3, r1
    8de0:	e1a02000 	mov	r2, r0
    8de4:	e59d1000 	ldr	r1, [sp]
    8de8:	e59d0004 	ldr	r0, [sp, #4]
    8dec:	e597c010 	ldr	ip, [r7, #16]
    8df0:	e0610000 	rsb	r0, r1, r0
    8df4:	e5961010 	ldr	r1, [r6, #16]
    8df8:	e061100c 	rsb	r1, r1, ip
    8dfc:	e0801281 	add	r1, r0, r1, lsl #5
    8e00:	e3510000 	cmp	r1, #0
    8e04:	d2611000 	rsble	r1, r1, #0
    8e08:	c0855a01 	addgt	r5, r5, r1, lsl #20
    8e0c:	d0833a01 	addle	r3, r3, r1, lsl #20
    8e10:	e1a00004 	mov	r0, r4
    8e14:	e1a01005 	mov	r1, r5
    8e18:	eb000ca6 	bl	c0b8 <__aeabi_ddiv>
    8e1c:	e28dd00c 	add	sp, sp, #12
    8e20:	e8bd40f0 	pop	{r4, r5, r6, r7, lr}
    8e24:	e12fff1e 	bx	lr

00008e28 <_mprec_log10>:
    8e28:	e3500017 	cmp	r0, #23
    8e2c:	e92d4010 	push	{r4, lr}
    8e30:	c59f1030 	ldrgt	r1, [pc, #48]	; 8e68 <_mprec_log10+0x40>
    8e34:	e1a04000 	mov	r4, r0
    8e38:	c3a00000 	movgt	r0, #0
    8e3c:	d59f3028 	ldrle	r3, [pc, #40]	; 8e6c <_mprec_log10+0x44>
    8e40:	d0834180 	addle	r4, r3, r0, lsl #3
    8e44:	d8940003 	ldmle	r4, {r0, r1}
    8e48:	da000004 	ble	8e60 <_mprec_log10+0x38>
    8e4c:	e3a02000 	mov	r2, #0
    8e50:	e59f3018 	ldr	r3, [pc, #24]	; 8e70 <_mprec_log10+0x48>
    8e54:	eb000bf3 	bl	be28 <__aeabi_dmul>
    8e58:	e2544001 	subs	r4, r4, #1
    8e5c:	1afffffa 	bne	8e4c <_mprec_log10+0x24>
    8e60:	e8bd4010 	pop	{r4, lr}
    8e64:	e12fff1e 	bx	lr
    8e68:	3ff00000 	.word	0x3ff00000
    8e6c:	0000cee0 	.word	0x0000cee0
    8e70:	40240000 	.word	0x40240000

00008e74 <__copybits>:
    8e74:	e2413001 	sub	r3, r1, #1
    8e78:	e5921010 	ldr	r1, [r2, #16]
    8e7c:	e1a032c3 	asr	r3, r3, #5
    8e80:	e0821101 	add	r1, r2, r1, lsl #2
    8e84:	e2833001 	add	r3, r3, #1
    8e88:	e0803103 	add	r3, r0, r3, lsl #2
    8e8c:	e2811014 	add	r1, r1, #20
    8e90:	e2822014 	add	r2, r2, #20
    8e94:	ea000001 	b	8ea0 <__copybits+0x2c>
    8e98:	e492c004 	ldr	ip, [r2], #4
    8e9c:	e480c004 	str	ip, [r0], #4
    8ea0:	e1510002 	cmp	r1, r2
    8ea4:	8afffffb 	bhi	8e98 <__copybits+0x24>
    8ea8:	ea000001 	b	8eb4 <__copybits+0x40>
    8eac:	e3a02000 	mov	r2, #0
    8eb0:	e4802004 	str	r2, [r0], #4
    8eb4:	e1500003 	cmp	r0, r3
    8eb8:	3afffffb 	bcc	8eac <__copybits+0x38>
    8ebc:	e12fff1e 	bx	lr

00008ec0 <__any_on>:
    8ec0:	e5902010 	ldr	r2, [r0, #16]
    8ec4:	e1a032c1 	asr	r3, r1, #5
    8ec8:	e1530002 	cmp	r3, r2
    8ecc:	e52d4004 	push	{r4}		; (str r4, [sp, #-4]!)
    8ed0:	e280c014 	add	ip, r0, #20
    8ed4:	c1a03002 	movgt	r3, r2
    8ed8:	ca000007 	bgt	8efc <__any_on+0x3c>
    8edc:	aa000006 	bge	8efc <__any_on+0x3c>
    8ee0:	e211101f 	ands	r1, r1, #31
    8ee4:	0a000004 	beq	8efc <__any_on+0x3c>
    8ee8:	e0802103 	add	r2, r0, r3, lsl #2
    8eec:	e5922014 	ldr	r2, [r2, #20]
    8ef0:	e1a04132 	lsr	r4, r2, r1
    8ef4:	e1520114 	cmp	r2, r4, lsl r1
    8ef8:	1a000009 	bne	8f24 <__any_on+0x64>
    8efc:	e0803103 	add	r3, r0, r3, lsl #2
    8f00:	e2833014 	add	r3, r3, #20
    8f04:	ea000002 	b	8f14 <__any_on+0x54>
    8f08:	e5332004 	ldr	r2, [r3, #-4]!
    8f0c:	e3520000 	cmp	r2, #0
    8f10:	1a000003 	bne	8f24 <__any_on+0x64>
    8f14:	e15c0003 	cmp	ip, r3
    8f18:	3afffffa 	bcc	8f08 <__any_on+0x48>
    8f1c:	e3a00000 	mov	r0, #0
    8f20:	ea000000 	b	8f28 <__any_on+0x68>
    8f24:	e3a00001 	mov	r0, #1
    8f28:	e49d4004 	pop	{r4}		; (ldr r4, [sp], #4)
    8f2c:	e12fff1e 	bx	lr

00008f30 <__fpclassifyd>:
    8f30:	e1a02001 	mov	r2, r1
    8f34:	e1a03002 	mov	r3, r2
    8f38:	e1901003 	orrs	r1, r0, r3
    8f3c:	e1a02000 	mov	r2, r0
    8f40:	0a000017 	beq	8fa4 <__fpclassifyd+0x74>
    8f44:	e2700001 	rsbs	r0, r0, #1
    8f48:	33a00000 	movcc	r0, #0
    8f4c:	e3530102 	cmp	r3, #-2147483648	; 0x80000000
    8f50:	03520000 	cmpeq	r2, #0
    8f54:	0a000012 	beq	8fa4 <__fpclassifyd+0x74>
    8f58:	e283c47f 	add	ip, r3, #2130706432	; 0x7f000000
    8f5c:	e59f2050 	ldr	r2, [pc, #80]	; 8fb4 <__fpclassifyd+0x84>
    8f60:	e28cc60f 	add	ip, ip, #15728640	; 0xf00000
    8f64:	e2431601 	sub	r1, r3, #1048576	; 0x100000
    8f68:	e1510002 	cmp	r1, r2
    8f6c:	815c0002 	cmphi	ip, r2
    8f70:	93a00004 	movls	r0, #4
    8f74:	912fff1e 	bxls	lr
    8f78:	e2832102 	add	r2, r3, #-2147483648	; 0x80000000
    8f7c:	e3530601 	cmp	r3, #1048576	; 0x100000
    8f80:	23520601 	cmpcs	r2, #1048576	; 0x100000
    8f84:	3a000008 	bcc	8fac <__fpclassifyd+0x7c>
    8f88:	e59f2028 	ldr	r2, [pc, #40]	; 8fb8 <__fpclassifyd+0x88>
    8f8c:	e3730601 	cmn	r3, #1048576	; 0x100000
    8f90:	11530002 	cmpne	r3, r2
    8f94:	13a03000 	movne	r3, #0
    8f98:	03a03001 	moveq	r3, #1
    8f9c:	e0000003 	and	r0, r0, r3
    8fa0:	e12fff1e 	bx	lr
    8fa4:	e3a00002 	mov	r0, #2
    8fa8:	e12fff1e 	bx	lr
    8fac:	e3a00003 	mov	r0, #3
    8fb0:	e12fff1e 	bx	lr
    8fb4:	7fdfffff 	.word	0x7fdfffff
    8fb8:	7ff00000 	.word	0x7ff00000

00008fbc <_sbrk_r>:
    8fbc:	e92d4038 	push	{r3, r4, r5, lr}
    8fc0:	e59f402c 	ldr	r4, [pc, #44]	; 8ff4 <_sbrk_r+0x38>
    8fc4:	e3a03000 	mov	r3, #0
    8fc8:	e1a05000 	mov	r5, r0
    8fcc:	e1a00001 	mov	r0, r1
    8fd0:	e5843000 	str	r3, [r4]
    8fd4:	eb0009e8 	bl	b77c <_sbrk>
    8fd8:	e3700001 	cmn	r0, #1
    8fdc:	1a000002 	bne	8fec <_sbrk_r+0x30>
    8fe0:	e5943000 	ldr	r3, [r4]
    8fe4:	e3530000 	cmp	r3, #0
    8fe8:	15853000 	strne	r3, [r5]
    8fec:	e8bd4038 	pop	{r3, r4, r5, lr}
    8ff0:	e12fff1e 	bx	lr
    8ff4:	40000928 	.word	0x40000928

00008ff8 <__sread>:
    8ff8:	e92d4010 	push	{r4, lr}
    8ffc:	e1a04001 	mov	r4, r1
    9000:	e1d110fe 	ldrsh	r1, [r1, #14]
    9004:	eb00062d 	bl	a8c0 <_read_r>
    9008:	e3500000 	cmp	r0, #0
    900c:	a5943050 	ldrge	r3, [r4, #80]	; 0x50
    9010:	b1d430bc 	ldrhlt	r3, [r4, #12]
    9014:	a0833000 	addge	r3, r3, r0
    9018:	b3c33a01 	biclt	r3, r3, #4096	; 0x1000
    901c:	a5843050 	strge	r3, [r4, #80]	; 0x50
    9020:	b1c430bc 	strhlt	r3, [r4, #12]
    9024:	e8bd4010 	pop	{r4, lr}
    9028:	e12fff1e 	bx	lr

0000902c <__seofread>:
    902c:	e3a00000 	mov	r0, #0
    9030:	e12fff1e 	bx	lr

00009034 <__swrite>:
    9034:	e92d40f8 	push	{r3, r4, r5, r6, r7, lr}
    9038:	e1a05003 	mov	r5, r3
    903c:	e1d130bc 	ldrh	r3, [r1, #12]
    9040:	e3130c01 	tst	r3, #256	; 0x100
    9044:	e1a07000 	mov	r7, r0
    9048:	e1a04001 	mov	r4, r1
    904c:	e1a06002 	mov	r6, r2
    9050:	11d110fe 	ldrshne	r1, [r1, #14]
    9054:	13a02000 	movne	r2, #0
    9058:	13a03002 	movne	r3, #2
    905c:	1b0005f3 	blne	a830 <_lseek_r>
    9060:	e1d430bc 	ldrh	r3, [r4, #12]
    9064:	e3c33a01 	bic	r3, r3, #4096	; 0x1000
    9068:	e1c430bc 	strh	r3, [r4, #12]
    906c:	e1a00007 	mov	r0, r7
    9070:	e1d410fe 	ldrsh	r1, [r4, #14]
    9074:	e1a02006 	mov	r2, r6
    9078:	e1a03005 	mov	r3, r5
    907c:	eb0003d0 	bl	9fc4 <_write_r>
    9080:	e8bd40f8 	pop	{r3, r4, r5, r6, r7, lr}
    9084:	e12fff1e 	bx	lr

00009088 <__sseek>:
    9088:	e92d4010 	push	{r4, lr}
    908c:	e1a04001 	mov	r4, r1
    9090:	e1d110fe 	ldrsh	r1, [r1, #14]
    9094:	eb0005e5 	bl	a830 <_lseek_r>
    9098:	e1d430bc 	ldrh	r3, [r4, #12]
    909c:	e3700001 	cmn	r0, #1
    90a0:	03c33a01 	biceq	r3, r3, #4096	; 0x1000
    90a4:	13833a01 	orrne	r3, r3, #4096	; 0x1000
    90a8:	01c430bc 	strheq	r3, [r4, #12]
    90ac:	11c430bc 	strhne	r3, [r4, #12]
    90b0:	15840050 	strne	r0, [r4, #80]	; 0x50
    90b4:	e8bd4010 	pop	{r4, lr}
    90b8:	e12fff1e 	bx	lr

000090bc <__sclose>:
    90bc:	e92d4008 	push	{r3, lr}
    90c0:	e1d110fe 	ldrsh	r1, [r1, #14]
    90c4:	eb0003f6 	bl	a0a4 <_close_r>
    90c8:	e8bd4008 	pop	{r3, lr}
    90cc:	e12fff1e 	bx	lr

000090d0 <strcmp>:
    90d0:	e4d02001 	ldrb	r2, [r0], #1
    90d4:	e4d13001 	ldrb	r3, [r1], #1
    90d8:	e3520001 	cmp	r2, #1
    90dc:	21520003 	cmpcs	r2, r3
    90e0:	0afffffa 	beq	90d0 <strcmp>
    90e4:	e0420003 	sub	r0, r2, r3
    90e8:	e12fff1e 	bx	lr

000090ec <strlen>:
    90ec:	e1a03000 	mov	r3, r0
    90f0:	e1e00000 	mvn	r0, r0
    90f4:	e4d32001 	ldrb	r2, [r3], #1
    90f8:	e3520000 	cmp	r2, #0
    90fc:	1afffffc 	bne	90f4 <strlen+0x8>
    9100:	e0830000 	add	r0, r3, r0
    9104:	e12fff1e 	bx	lr

00009108 <__sprint_r>:
    9108:	e92d4ff8 	push	{r3, r4, r5, r6, r7, r8, r9, sl, fp, lr}
    910c:	e5923008 	ldr	r3, [r2, #8]
    9110:	e3530000 	cmp	r3, #0
    9114:	e1a0b000 	mov	fp, r0
    9118:	e1a07001 	mov	r7, r1
    911c:	e1a04002 	mov	r4, r2
    9120:	05823004 	streq	r3, [r2, #4]
    9124:	01a00003 	moveq	r0, r3
    9128:	0a000021 	beq	91b4 <__sprint_r+0xac>
    912c:	e5913064 	ldr	r3, [r1, #100]	; 0x64
    9130:	e3130a02 	tst	r3, #8192	; 0x2000
    9134:	15929000 	ldrne	r9, [r2]
    9138:	13a05000 	movne	r5, #0
    913c:	1a000014 	bne	9194 <__sprint_r+0x8c>
    9140:	ea000017 	b	91a4 <__sprint_r+0x9c>
    9144:	e0893005 	add	r3, r9, r5
    9148:	e5938004 	ldr	r8, [r3, #4]
    914c:	e799a005 	ldr	sl, [r9, r5]
    9150:	e1a08128 	lsr	r8, r8, #2
    9154:	e3a06000 	mov	r6, #0
    9158:	ea000006 	b	9178 <__sprint_r+0x70>
    915c:	e1a0000b 	mov	r0, fp
    9160:	e49a1004 	ldr	r1, [sl], #4
    9164:	e1a02007 	mov	r2, r7
    9168:	eb000418 	bl	a1d0 <_fputwc_r>
    916c:	e3700001 	cmn	r0, #1
    9170:	0a00000c 	beq	91a8 <__sprint_r+0xa0>
    9174:	e2866001 	add	r6, r6, #1
    9178:	e1560008 	cmp	r6, r8
    917c:	bafffff6 	blt	915c <__sprint_r+0x54>
    9180:	e5943008 	ldr	r3, [r4, #8]
    9184:	e1a08108 	lsl	r8, r8, #2
    9188:	e0688003 	rsb	r8, r8, r3
    918c:	e5848008 	str	r8, [r4, #8]
    9190:	e2855008 	add	r5, r5, #8
    9194:	e5940008 	ldr	r0, [r4, #8]
    9198:	e3500000 	cmp	r0, #0
    919c:	1affffe8 	bne	9144 <__sprint_r+0x3c>
    91a0:	ea000000 	b	91a8 <__sprint_r+0xa0>
    91a4:	eb00047b 	bl	a398 <__sfvwrite_r>
    91a8:	e3a03000 	mov	r3, #0
    91ac:	e5843008 	str	r3, [r4, #8]
    91b0:	e5843004 	str	r3, [r4, #4]
    91b4:	e8bd4ff8 	pop	{r3, r4, r5, r6, r7, r8, r9, sl, fp, lr}
    91b8:	e12fff1e 	bx	lr

000091bc <_vfiprintf_r>:
    91bc:	e92d4ff0 	push	{r4, r5, r6, r7, r8, r9, sl, fp, lr}
    91c0:	e2509000 	subs	r9, r0, #0
    91c4:	e24ddf83 	sub	sp, sp, #524	; 0x20c
    91c8:	e1a06001 	mov	r6, r1
    91cc:	e1a04002 	mov	r4, r2
    91d0:	e1a07003 	mov	r7, r3
    91d4:	0a000002 	beq	91e4 <_vfiprintf_r+0x28>
    91d8:	e5993038 	ldr	r3, [r9, #56]	; 0x38
    91dc:	e3530000 	cmp	r3, #0
    91e0:	0bfff8c5 	bleq	74fc <__sinit>
    91e4:	e1d630bc 	ldrh	r3, [r6, #12]
    91e8:	e3130a02 	tst	r3, #8192	; 0x2000
    91ec:	03833a02 	orreq	r3, r3, #8192	; 0x2000
    91f0:	01c630bc 	strheq	r3, [r6, #12]
    91f4:	05963064 	ldreq	r3, [r6, #100]	; 0x64
    91f8:	03c33a02 	biceq	r3, r3, #8192	; 0x2000
    91fc:	05863064 	streq	r3, [r6, #100]	; 0x64
    9200:	e1d630bc 	ldrh	r3, [r6, #12]
    9204:	e3130008 	tst	r3, #8
    9208:	0a000002 	beq	9218 <_vfiprintf_r+0x5c>
    920c:	e5963010 	ldr	r3, [r6, #16]
    9210:	e3530000 	cmp	r3, #0
    9214:	1a000006 	bne	9234 <_vfiprintf_r+0x78>
    9218:	e1a00009 	mov	r0, r9
    921c:	e1a01006 	mov	r1, r6
    9220:	ebfff271 	bl	5bec <__swsetup_r>
    9224:	e3500000 	cmp	r0, #0
    9228:	13e0c000 	mvnne	ip, #0
    922c:	158dc014 	strne	ip, [sp, #20]
    9230:	1a000350 	bne	9f78 <_vfiprintf_r+0xdbc>
    9234:	e1d630bc 	ldrh	r3, [r6, #12]
    9238:	e203201a 	and	r2, r3, #26
    923c:	e352000a 	cmp	r2, #10
    9240:	1a00002b 	bne	92f4 <_vfiprintf_r+0x138>
    9244:	e1d610fe 	ldrsh	r1, [r6, #14]
    9248:	e3510000 	cmp	r1, #0
    924c:	e1d620be 	ldrh	r2, [r6, #14]
    9250:	ba000027 	blt	92f4 <_vfiprintf_r+0x138>
    9254:	e28d1c01 	add	r1, sp, #256	; 0x100
    9258:	e3c33002 	bic	r3, r3, #2
    925c:	e1c133b4 	strh	r3, [r1, #52]	; 0x34
    9260:	e5963064 	ldr	r3, [r6, #100]	; 0x64
    9264:	e58d318c 	str	r3, [sp, #396]	; 0x18c
    9268:	e596301c 	ldr	r3, [r6, #28]
    926c:	e58d3144 	str	r3, [sp, #324]	; 0x144
    9270:	e5963024 	ldr	r3, [r6, #36]	; 0x24
    9274:	e58d314c 	str	r3, [sp, #332]	; 0x14c
    9278:	e3a03c01 	mov	r3, #256	; 0x100
    927c:	e1c123b6 	strh	r2, [r1, #54]	; 0x36
    9280:	e58d3130 	str	r3, [sp, #304]	; 0x130
    9284:	e28d2028 	add	r2, sp, #40	; 0x28
    9288:	e58d313c 	str	r3, [sp, #316]	; 0x13c
    928c:	e3a03000 	mov	r3, #0
    9290:	e58d2128 	str	r2, [sp, #296]	; 0x128
    9294:	e58d2138 	str	r2, [sp, #312]	; 0x138
    9298:	e58d3140 	str	r3, [sp, #320]	; 0x140
    929c:	e1a00009 	mov	r0, r9
    92a0:	e28d1f4a 	add	r1, sp, #296	; 0x128
    92a4:	e1a02004 	mov	r2, r4
    92a8:	e1a03007 	mov	r3, r7
    92ac:	ebffffc2 	bl	91bc <_vfiprintf_r>
    92b0:	e3500000 	cmp	r0, #0
    92b4:	e58d0014 	str	r0, [sp, #20]
    92b8:	ba000006 	blt	92d8 <_vfiprintf_r+0x11c>
    92bc:	e1a00009 	mov	r0, r9
    92c0:	e28d1f4a 	add	r1, sp, #296	; 0x128
    92c4:	ebfff7b5 	bl	71a0 <_fflush_r>
    92c8:	e59d3014 	ldr	r3, [sp, #20]
    92cc:	e3500000 	cmp	r0, #0
    92d0:	13e03000 	mvnne	r3, #0
    92d4:	e58d3014 	str	r3, [sp, #20]
    92d8:	e28dcc01 	add	ip, sp, #256	; 0x100
    92dc:	e1dc33b4 	ldrh	r3, [ip, #52]	; 0x34
    92e0:	e3130040 	tst	r3, #64	; 0x40
    92e4:	11d630bc 	ldrhne	r3, [r6, #12]
    92e8:	13833040 	orrne	r3, r3, #64	; 0x40
    92ec:	11c630bc 	strhne	r3, [r6, #12]
    92f0:	ea000320 	b	9f78 <_vfiprintf_r+0xdbc>
    92f4:	e3a03000 	mov	r3, #0
    92f8:	e28d5e19 	add	r5, sp, #400	; 0x190
    92fc:	e58d51f8 	str	r5, [sp, #504]	; 0x1f8
    9300:	e58d3200 	str	r3, [sp, #512]	; 0x200
    9304:	e58d31fc 	str	r3, [sp, #508]	; 0x1fc
    9308:	e58d400c 	str	r4, [sp, #12]
    930c:	e58d301c 	str	r3, [sp, #28]
    9310:	e58d3014 	str	r3, [sp, #20]
    9314:	e1a0b009 	mov	fp, r9
    9318:	e1a09006 	mov	r9, r6
    931c:	e59d300c 	ldr	r3, [sp, #12]
    9320:	e5d32000 	ldrb	r2, [r3]
    9324:	e3520025 	cmp	r2, #37	; 0x25
    9328:	13520000 	cmpne	r2, #0
    932c:	e1a04003 	mov	r4, r3
    9330:	e2833001 	add	r3, r3, #1
    9334:	1afffff9 	bne	9320 <_vfiprintf_r+0x164>
    9338:	e59d100c 	ldr	r1, [sp, #12]
    933c:	e0546001 	subs	r6, r4, r1
    9340:	0a000013 	beq	9394 <_vfiprintf_r+0x1d8>
    9344:	e59d3200 	ldr	r3, [sp, #512]	; 0x200
    9348:	e0833006 	add	r3, r3, r6
    934c:	e8850042 	stm	r5, {r1, r6}
    9350:	e58d3200 	str	r3, [sp, #512]	; 0x200
    9354:	e59d31fc 	ldr	r3, [sp, #508]	; 0x1fc
    9358:	e2833001 	add	r3, r3, #1
    935c:	e3530007 	cmp	r3, #7
    9360:	e58d31fc 	str	r3, [sp, #508]	; 0x1fc
    9364:	d2855008 	addle	r5, r5, #8
    9368:	da000006 	ble	9388 <_vfiprintf_r+0x1cc>
    936c:	e1a0000b 	mov	r0, fp
    9370:	e1a01009 	mov	r1, r9
    9374:	e28d2f7e 	add	r2, sp, #504	; 0x1f8
    9378:	ebffff62 	bl	9108 <__sprint_r>
    937c:	e3500000 	cmp	r0, #0
    9380:	1a0002f6 	bne	9f60 <_vfiprintf_r+0xda4>
    9384:	e28d5e19 	add	r5, sp, #400	; 0x190
    9388:	e59d2014 	ldr	r2, [sp, #20]
    938c:	e0822006 	add	r2, r2, r6
    9390:	e58d2014 	str	r2, [sp, #20]
    9394:	e5d43000 	ldrb	r3, [r4]
    9398:	e3530000 	cmp	r3, #0
    939c:	0a0002e6 	beq	9f3c <_vfiprintf_r+0xd80>
    93a0:	e2844001 	add	r4, r4, #1
    93a4:	e3a03000 	mov	r3, #0
    93a8:	e58d400c 	str	r4, [sp, #12]
    93ac:	e5cd3207 	strb	r3, [sp, #519]	; 0x207
    93b0:	e3e0c000 	mvn	ip, #0
    93b4:	e58d3010 	str	r3, [sp, #16]
    93b8:	e1a04003 	mov	r4, r3
    93bc:	e59d200c 	ldr	r2, [sp, #12]
    93c0:	e1a01003 	mov	r1, r3
    93c4:	ea000002 	b	93d4 <_vfiprintf_r+0x218>
    93c8:	e1a07003 	mov	r7, r3
    93cc:	e1a02000 	mov	r2, r0
    93d0:	e3e0c000 	mvn	ip, #0
    93d4:	e4d23001 	ldrb	r3, [r2], #1
    93d8:	e3530063 	cmp	r3, #99	; 0x63
    93dc:	0a000082 	beq	95ec <_vfiprintf_r+0x430>
    93e0:	ca000023 	bgt	9474 <_vfiprintf_r+0x2b8>
    93e4:	e3530039 	cmp	r3, #57	; 0x39
    93e8:	ca000014 	bgt	9440 <_vfiprintf_r+0x284>
    93ec:	e3530031 	cmp	r3, #49	; 0x31
    93f0:	a1a00002 	movge	r0, r2
    93f4:	a3a01000 	movge	r1, #0
    93f8:	aa000069 	bge	95a4 <_vfiprintf_r+0x3e8>
    93fc:	e353002b 	cmp	r3, #43	; 0x2b
    9400:	0a00004c 	beq	9538 <_vfiprintf_r+0x37c>
    9404:	ca000006 	bgt	9424 <_vfiprintf_r+0x268>
    9408:	e3530023 	cmp	r3, #35	; 0x23
    940c:	0a00003e 	beq	950c <_vfiprintf_r+0x350>
    9410:	e353002a 	cmp	r3, #42	; 0x2a
    9414:	0a00003e 	beq	9514 <_vfiprintf_r+0x358>
    9418:	e3530020 	cmp	r3, #32
    941c:	1a000180 	bne	9a24 <_vfiprintf_r+0x868>
    9420:	ea000034 	b	94f8 <_vfiprintf_r+0x33c>
    9424:	e353002e 	cmp	r3, #46	; 0x2e
    9428:	0a000044 	beq	9540 <_vfiprintf_r+0x384>
    942c:	e3530030 	cmp	r3, #48	; 0x30
    9430:	0a000059 	beq	959c <_vfiprintf_r+0x3e0>
    9434:	e353002d 	cmp	r3, #45	; 0x2d
    9438:	1a000179 	bne	9a24 <_vfiprintf_r+0x868>
    943c:	ea00003b 	b	9530 <_vfiprintf_r+0x374>
    9440:	e353004f 	cmp	r3, #79	; 0x4f
    9444:	e58d200c 	str	r2, [sp, #12]
    9448:	e58d1010 	str	r1, [sp, #16]
    944c:	0a00009f 	beq	96d0 <_vfiprintf_r+0x514>
    9450:	ca000002 	bgt	9460 <_vfiprintf_r+0x2a4>
    9454:	e3530044 	cmp	r3, #68	; 0x44
    9458:	1a000173 	bne	9a2c <_vfiprintf_r+0x870>
    945c:	ea00006b 	b	9610 <_vfiprintf_r+0x454>
    9460:	e3530055 	cmp	r3, #85	; 0x55
    9464:	0a0000dc 	beq	97dc <_vfiprintf_r+0x620>
    9468:	e3530058 	cmp	r3, #88	; 0x58
    946c:	1a00016e 	bne	9a2c <_vfiprintf_r+0x870>
    9470:	ea0000ee 	b	9830 <_vfiprintf_r+0x674>
    9474:	e353006f 	cmp	r3, #111	; 0x6f
    9478:	0a000096 	beq	96d8 <_vfiprintf_r+0x51c>
    947c:	ca00000e 	bgt	94bc <_vfiprintf_r+0x300>
    9480:	e3530069 	cmp	r3, #105	; 0x69
    9484:	0a000063 	beq	9618 <_vfiprintf_r+0x45c>
    9488:	ca000004 	bgt	94a0 <_vfiprintf_r+0x2e4>
    948c:	e3530064 	cmp	r3, #100	; 0x64
    9490:	0a000060 	beq	9618 <_vfiprintf_r+0x45c>
    9494:	e3530068 	cmp	r3, #104	; 0x68
    9498:	1a000161 	bne	9a24 <_vfiprintf_r+0x868>
    949c:	ea000049 	b	95c8 <_vfiprintf_r+0x40c>
    94a0:	e353006c 	cmp	r3, #108	; 0x6c
    94a4:	0a000049 	beq	95d0 <_vfiprintf_r+0x414>
    94a8:	e353006e 	cmp	r3, #110	; 0x6e
    94ac:	e58d200c 	str	r2, [sp, #12]
    94b0:	e58d1010 	str	r1, [sp, #16]
    94b4:	1a00015c 	bne	9a2c <_vfiprintf_r+0x870>
    94b8:	ea00006f 	b	967c <_vfiprintf_r+0x4c0>
    94bc:	e3530073 	cmp	r3, #115	; 0x73
    94c0:	0a0000a8 	beq	9768 <_vfiprintf_r+0x5ac>
    94c4:	ca000004 	bgt	94dc <_vfiprintf_r+0x320>
    94c8:	e3530070 	cmp	r3, #112	; 0x70
    94cc:	0a000098 	beq	9734 <_vfiprintf_r+0x578>
    94d0:	e3530071 	cmp	r3, #113	; 0x71
    94d4:	1a000152 	bne	9a24 <_vfiprintf_r+0x868>
    94d8:	ea000041 	b	95e4 <_vfiprintf_r+0x428>
    94dc:	e3530075 	cmp	r3, #117	; 0x75
    94e0:	e58d200c 	str	r2, [sp, #12]
    94e4:	e58d1010 	str	r1, [sp, #16]
    94e8:	0a0000bc 	beq	97e0 <_vfiprintf_r+0x624>
    94ec:	e3530078 	cmp	r3, #120	; 0x78
    94f0:	1a00014d 	bne	9a2c <_vfiprintf_r+0x870>
    94f4:	ea0000ca 	b	9824 <_vfiprintf_r+0x668>
    94f8:	e5dd3207 	ldrb	r3, [sp, #519]	; 0x207
    94fc:	e3530000 	cmp	r3, #0
    9500:	02833020 	addeq	r3, r3, #32
    9504:	0a00000b 	beq	9538 <_vfiprintf_r+0x37c>
    9508:	eaffffb1 	b	93d4 <_vfiprintf_r+0x218>
    950c:	e3844001 	orr	r4, r4, #1
    9510:	eaffffaf 	b	93d4 <_vfiprintf_r+0x218>
    9514:	e5971000 	ldr	r1, [r7]
    9518:	e2873004 	add	r3, r7, #4
    951c:	e3510000 	cmp	r1, #0
    9520:	a1a07003 	movge	r7, r3
    9524:	aaffffaa 	bge	93d4 <_vfiprintf_r+0x218>
    9528:	e2611000 	rsb	r1, r1, #0
    952c:	e1a07003 	mov	r7, r3
    9530:	e3844004 	orr	r4, r4, #4
    9534:	eaffffa6 	b	93d4 <_vfiprintf_r+0x218>
    9538:	e5cd3207 	strb	r3, [sp, #519]	; 0x207
    953c:	eaffffa4 	b	93d4 <_vfiprintf_r+0x218>
    9540:	e1a00002 	mov	r0, r2
    9544:	e4d03001 	ldrb	r3, [r0], #1
    9548:	e353002a 	cmp	r3, #42	; 0x2a
    954c:	11a00002 	movne	r0, r2
    9550:	13a0c000 	movne	ip, #0
    9554:	1a00000a 	bne	9584 <_vfiprintf_r+0x3c8>
    9558:	e597c000 	ldr	ip, [r7]
    955c:	e2873004 	add	r3, r7, #4
    9560:	e35c0000 	cmp	ip, #0
    9564:	a1a07003 	movge	r7, r3
    9568:	a1a02000 	movge	r2, r0
    956c:	aaffff98 	bge	93d4 <_vfiprintf_r+0x218>
    9570:	eaffff94 	b	93c8 <_vfiprintf_r+0x20c>
    9574:	e3a0300a 	mov	r3, #10
    9578:	e02c6c93 	mla	ip, r3, ip, r6
    957c:	e5d03001 	ldrb	r3, [r0, #1]
    9580:	e1a00002 	mov	r0, r2
    9584:	e2436030 	sub	r6, r3, #48	; 0x30
    9588:	e3560009 	cmp	r6, #9
    958c:	e2822001 	add	r2, r2, #1
    9590:	9afffff7 	bls	9574 <_vfiprintf_r+0x3b8>
    9594:	e18ccfcc 	orr	ip, ip, ip, asr #31
    9598:	eaffff8e 	b	93d8 <_vfiprintf_r+0x21c>
    959c:	e3844080 	orr	r4, r4, #128	; 0x80
    95a0:	eaffff8b 	b	93d4 <_vfiprintf_r+0x218>
    95a4:	e2433030 	sub	r3, r3, #48	; 0x30
    95a8:	e3a0200a 	mov	r2, #10
    95ac:	e0213192 	mla	r1, r2, r1, r3
    95b0:	e4d03001 	ldrb	r3, [r0], #1
    95b4:	e2436030 	sub	r6, r3, #48	; 0x30
    95b8:	e3560009 	cmp	r6, #9
    95bc:	e1a02000 	mov	r2, r0
    95c0:	9afffff7 	bls	95a4 <_vfiprintf_r+0x3e8>
    95c4:	eaffff83 	b	93d8 <_vfiprintf_r+0x21c>
    95c8:	e3844040 	orr	r4, r4, #64	; 0x40
    95cc:	eaffff80 	b	93d4 <_vfiprintf_r+0x218>
    95d0:	e5d23000 	ldrb	r3, [r2]
    95d4:	e353006c 	cmp	r3, #108	; 0x6c
    95d8:	02822001 	addeq	r2, r2, #1
    95dc:	13844010 	orrne	r4, r4, #16
    95e0:	1affff7b 	bne	93d4 <_vfiprintf_r+0x218>
    95e4:	e3844020 	orr	r4, r4, #32
    95e8:	eaffff79 	b	93d4 <_vfiprintf_r+0x218>
    95ec:	e5973000 	ldr	r3, [r7]
    95f0:	e2878004 	add	r8, r7, #4
    95f4:	e3a07000 	mov	r7, #0
    95f8:	e58d200c 	str	r2, [sp, #12]
    95fc:	e58d1010 	str	r1, [sp, #16]
    9600:	e5cd31d0 	strb	r3, [sp, #464]	; 0x1d0
    9604:	e5cd7207 	strb	r7, [sp, #519]	; 0x207
    9608:	e3a06001 	mov	r6, #1
    960c:	ea00010e 	b	9a4c <_vfiprintf_r+0x890>
    9610:	e3844010 	orr	r4, r4, #16
    9614:	ea000001 	b	9620 <_vfiprintf_r+0x464>
    9618:	e58d200c 	str	r2, [sp, #12]
    961c:	e58d1010 	str	r1, [sp, #16]
    9620:	e3140020 	tst	r4, #32
    9624:	12877007 	addne	r7, r7, #7
    9628:	13c77007 	bicne	r7, r7, #7
    962c:	12878008 	addne	r8, r7, #8
    9630:	189700c0 	ldmne	r7, {r6, r7}
    9634:	1a000008 	bne	965c <_vfiprintf_r+0x4a0>
    9638:	e3140010 	tst	r4, #16
    963c:	e2878004 	add	r8, r7, #4
    9640:	15976000 	ldrne	r6, [r7]
    9644:	1a000003 	bne	9658 <_vfiprintf_r+0x49c>
    9648:	e5976000 	ldr	r6, [r7]
    964c:	e3140040 	tst	r4, #64	; 0x40
    9650:	11a06806 	lslne	r6, r6, #16
    9654:	11a06846 	asrne	r6, r6, #16
    9658:	e1a07fc6 	asr	r7, r6, #31
    965c:	e3560000 	cmp	r6, #0
    9660:	e2d73000 	sbcs	r3, r7, #0
    9664:	aa00008e 	bge	98a4 <_vfiprintf_r+0x6e8>
    9668:	e3a0302d 	mov	r3, #45	; 0x2d
    966c:	e2766000 	rsbs	r6, r6, #0
    9670:	e2e77000 	rsc	r7, r7, #0
    9674:	e5cd3207 	strb	r3, [sp, #519]	; 0x207
    9678:	ea000089 	b	98a4 <_vfiprintf_r+0x6e8>
    967c:	e3140020 	tst	r4, #32
    9680:	e2873004 	add	r3, r7, #4
    9684:	159dc014 	ldrne	ip, [sp, #20]
    9688:	15972000 	ldrne	r2, [r7]
    968c:	11a0000c 	movne	r0, ip
    9690:	11a01fc0 	asrne	r1, r0, #31
    9694:	18820003 	stmne	r2, {r0, r1}
    9698:	1a00000a 	bne	96c8 <_vfiprintf_r+0x50c>
    969c:	e3140010 	tst	r4, #16
    96a0:	1a000005 	bne	96bc <_vfiprintf_r+0x500>
    96a4:	e3140040 	tst	r4, #64	; 0x40
    96a8:	15972000 	ldrne	r2, [r7]
    96ac:	159dc014 	ldrne	ip, [sp, #20]
    96b0:	e2873004 	add	r3, r7, #4
    96b4:	11c2c0b0 	strhne	ip, [r2]
    96b8:	1a000002 	bne	96c8 <_vfiprintf_r+0x50c>
    96bc:	e5972000 	ldr	r2, [r7]
    96c0:	e59d1014 	ldr	r1, [sp, #20]
    96c4:	e5821000 	str	r1, [r2]
    96c8:	e1a07003 	mov	r7, r3
    96cc:	eaffff12 	b	931c <_vfiprintf_r+0x160>
    96d0:	e3844010 	orr	r4, r4, #16
    96d4:	ea000001 	b	96e0 <_vfiprintf_r+0x524>
    96d8:	e58d200c 	str	r2, [sp, #12]
    96dc:	e58d1010 	str	r1, [sp, #16]
    96e0:	e2143020 	ands	r3, r4, #32
    96e4:	0a000005 	beq	9700 <_vfiprintf_r+0x544>
    96e8:	e2877007 	add	r7, r7, #7
    96ec:	e3c77007 	bic	r7, r7, #7
    96f0:	e2878008 	add	r8, r7, #8
    96f4:	e3a03000 	mov	r3, #0
    96f8:	e89700c0 	ldm	r7, {r6, r7}
    96fc:	ea000065 	b	9898 <_vfiprintf_r+0x6dc>
    9700:	e2142010 	ands	r2, r4, #16
    9704:	e2878004 	add	r8, r7, #4
    9708:	15976000 	ldrne	r6, [r7]
    970c:	1a000006 	bne	972c <_vfiprintf_r+0x570>
    9710:	e2143040 	ands	r3, r4, #64	; 0x40
    9714:	e5976000 	ldr	r6, [r7]
    9718:	11a06806 	lslne	r6, r6, #16
    971c:	11a06826 	lsrne	r6, r6, #16
    9720:	13a07000 	movne	r7, #0
    9724:	11a03002 	movne	r3, r2
    9728:	1a00005a 	bne	9898 <_vfiprintf_r+0x6dc>
    972c:	e3a07000 	mov	r7, #0
    9730:	ea000058 	b	9898 <_vfiprintf_r+0x6dc>
    9734:	e5976000 	ldr	r6, [r7]
    9738:	e3a03030 	mov	r3, #48	; 0x30
    973c:	e58d200c 	str	r2, [sp, #12]
    9740:	e59f2840 	ldr	r2, [pc, #2112]	; 9f88 <_vfiprintf_r+0xdcc>
    9744:	e5cd3204 	strb	r3, [sp, #516]	; 0x204
    9748:	e2833048 	add	r3, r3, #72	; 0x48
    974c:	e2878004 	add	r8, r7, #4
    9750:	e58d1010 	str	r1, [sp, #16]
    9754:	e3a07000 	mov	r7, #0
    9758:	e3844002 	orr	r4, r4, #2
    975c:	e5cd3205 	strb	r3, [sp, #517]	; 0x205
    9760:	e58d201c 	str	r2, [sp, #28]
    9764:	ea00004a 	b	9894 <_vfiprintf_r+0x6d8>
    9768:	e3a03000 	mov	r3, #0
    976c:	e5cd3207 	strb	r3, [sp, #519]	; 0x207
    9770:	e15c0003 	cmp	ip, r3
    9774:	e58d200c 	str	r2, [sp, #12]
    9778:	e58d1010 	str	r1, [sp, #16]
    977c:	e2878004 	add	r8, r7, #4
    9780:	e597a000 	ldr	sl, [r7]
    9784:	ba00000e 	blt	97c4 <_vfiprintf_r+0x608>
    9788:	e1a01003 	mov	r1, r3
    978c:	e1a0200c 	mov	r2, ip
    9790:	e1a0000a 	mov	r0, sl
    9794:	e58d3008 	str	r3, [sp, #8]
    9798:	e58dc004 	str	ip, [sp, #4]
    979c:	ebfffad4 	bl	82f4 <memchr>
    97a0:	e59dc004 	ldr	ip, [sp, #4]
    97a4:	e2507000 	subs	r7, r0, #0
    97a8:	e59d3008 	ldr	r3, [sp, #8]
    97ac:	01a0600c 	moveq	r6, ip
    97b0:	0a0000a8 	beq	9a58 <_vfiprintf_r+0x89c>
    97b4:	e06a6007 	rsb	r6, sl, r7
    97b8:	e156000c 	cmp	r6, ip
    97bc:	c1a0600c 	movgt	r6, ip
    97c0:	ea0000a3 	b	9a54 <_vfiprintf_r+0x898>
    97c4:	e1a0000a 	mov	r0, sl
    97c8:	e58d3008 	str	r3, [sp, #8]
    97cc:	ebfffe46 	bl	90ec <strlen>
    97d0:	e59d3008 	ldr	r3, [sp, #8]
    97d4:	e1a06000 	mov	r6, r0
    97d8:	ea00009d 	b	9a54 <_vfiprintf_r+0x898>
    97dc:	e3844010 	orr	r4, r4, #16
    97e0:	e3140020 	tst	r4, #32
    97e4:	12877007 	addne	r7, r7, #7
    97e8:	13c77007 	bicne	r7, r7, #7
    97ec:	12878008 	addne	r8, r7, #8
    97f0:	189700c0 	ldmne	r7, {r6, r7}
    97f4:	1a000008 	bne	981c <_vfiprintf_r+0x660>
    97f8:	e3140010 	tst	r4, #16
    97fc:	e2878004 	add	r8, r7, #4
    9800:	15976000 	ldrne	r6, [r7]
    9804:	1a000003 	bne	9818 <_vfiprintf_r+0x65c>
    9808:	e5976000 	ldr	r6, [r7]
    980c:	e3140040 	tst	r4, #64	; 0x40
    9810:	11a06806 	lslne	r6, r6, #16
    9814:	11a06826 	lsrne	r6, r6, #16
    9818:	e3a07000 	mov	r7, #0
    981c:	e3a03001 	mov	r3, #1
    9820:	ea00001c 	b	9898 <_vfiprintf_r+0x6dc>
    9824:	e59f175c 	ldr	r1, [pc, #1884]	; 9f88 <_vfiprintf_r+0xdcc>
    9828:	e58d101c 	str	r1, [sp, #28]
    982c:	ea000001 	b	9838 <_vfiprintf_r+0x67c>
    9830:	e59f2754 	ldr	r2, [pc, #1876]	; 9f8c <_vfiprintf_r+0xdd0>
    9834:	e58d201c 	str	r2, [sp, #28]
    9838:	e3140020 	tst	r4, #32
    983c:	12877007 	addne	r7, r7, #7
    9840:	13c77007 	bicne	r7, r7, #7
    9844:	12878008 	addne	r8, r7, #8
    9848:	189700c0 	ldmne	r7, {r6, r7}
    984c:	1a000008 	bne	9874 <_vfiprintf_r+0x6b8>
    9850:	e3140010 	tst	r4, #16
    9854:	e2878004 	add	r8, r7, #4
    9858:	15976000 	ldrne	r6, [r7]
    985c:	1a000003 	bne	9870 <_vfiprintf_r+0x6b4>
    9860:	e5976000 	ldr	r6, [r7]
    9864:	e3140040 	tst	r4, #64	; 0x40
    9868:	11a06806 	lslne	r6, r6, #16
    986c:	11a06826 	lsrne	r6, r6, #16
    9870:	e3a07000 	mov	r7, #0
    9874:	e1961007 	orrs	r1, r6, r7
    9878:	03a02000 	moveq	r2, #0
    987c:	12042001 	andne	r2, r4, #1
    9880:	e3520000 	cmp	r2, #0
    9884:	13a02030 	movne	r2, #48	; 0x30
    9888:	15cd2204 	strbne	r2, [sp, #516]	; 0x204
    988c:	15cd3205 	strbne	r3, [sp, #517]	; 0x205
    9890:	13844002 	orrne	r4, r4, #2
    9894:	e3a03002 	mov	r3, #2
    9898:	e3a02000 	mov	r2, #0
    989c:	e5cd2207 	strb	r2, [sp, #519]	; 0x207
    98a0:	ea000000 	b	98a8 <_vfiprintf_r+0x6ec>
    98a4:	e3a03001 	mov	r3, #1
    98a8:	e35c0000 	cmp	ip, #0
    98ac:	a3c44080 	bicge	r4, r4, #128	; 0x80
    98b0:	e1962007 	orrs	r2, r6, r7
    98b4:	03a02000 	moveq	r2, #0
    98b8:	13a02001 	movne	r2, #1
    98bc:	e35c0000 	cmp	ip, #0
    98c0:	13822001 	orrne	r2, r2, #1
    98c4:	e3520000 	cmp	r2, #0
    98c8:	0a000048 	beq	99f0 <_vfiprintf_r+0x834>
    98cc:	e3530001 	cmp	r3, #1
    98d0:	0a000017 	beq	9934 <_vfiprintf_r+0x778>
    98d4:	e3530002 	cmp	r3, #2
    98d8:	0a000035 	beq	99b4 <_vfiprintf_r+0x7f8>
    98dc:	e28d1e1d 	add	r1, sp, #464	; 0x1d0
    98e0:	e2813027 	add	r3, r1, #39	; 0x27
    98e4:	e1a011a6 	lsr	r1, r6, #3
    98e8:	e1810e87 	orr	r0, r1, r7, lsl #29
    98ec:	e2062007 	and	r2, r6, #7
    98f0:	e1a011a7 	lsr	r1, r7, #3
    98f4:	e2822030 	add	r2, r2, #48	; 0x30
    98f8:	e1a06000 	mov	r6, r0
    98fc:	e1a07001 	mov	r7, r1
    9900:	e5c32000 	strb	r2, [r3]
    9904:	e58d1018 	str	r1, [sp, #24]
    9908:	e1961007 	orrs	r1, r6, r7
    990c:	e1a0a003 	mov	sl, r3
    9910:	e2433001 	sub	r3, r3, #1
    9914:	1afffff2 	bne	98e4 <_vfiprintf_r+0x728>
    9918:	e3140001 	tst	r4, #1
    991c:	0a00003c 	beq	9a14 <_vfiprintf_r+0x858>
    9920:	e3520030 	cmp	r2, #48	; 0x30
    9924:	11a0a003 	movne	sl, r3
    9928:	13a03030 	movne	r3, #48	; 0x30
    992c:	15ca3000 	strbne	r3, [sl]
    9930:	ea000037 	b	9a14 <_vfiprintf_r+0x858>
    9934:	e3570000 	cmp	r7, #0
    9938:	03560009 	cmpeq	r6, #9
    993c:	828d3e1d 	addhi	r3, sp, #464	; 0x1d0
    9940:	82833027 	addhi	r3, r3, #39	; 0x27
    9944:	858d3018 	strhi	r3, [sp, #24]
    9948:	92866030 	addls	r6, r6, #48	; 0x30
    994c:	928d2e1d 	addls	r2, sp, #464	; 0x1d0
    9950:	95cd61f7 	strbls	r6, [sp, #503]	; 0x1f7
    9954:	9282a027 	addls	sl, r2, #39	; 0x27
    9958:	9a00002d 	bls	9a14 <_vfiprintf_r+0x858>
    995c:	e1a00006 	mov	r0, r6
    9960:	e1a01007 	mov	r1, r7
    9964:	e3a0200a 	mov	r2, #10
    9968:	e3a03000 	mov	r3, #0
    996c:	e58dc004 	str	ip, [sp, #4]
    9970:	eb000abb 	bl	c464 <__aeabi_uldivmod>
    9974:	e59d1018 	ldr	r1, [sp, #24]
    9978:	e2822030 	add	r2, r2, #48	; 0x30
    997c:	e59da018 	ldr	sl, [sp, #24]
    9980:	e4412001 	strb	r2, [r1], #-1
    9984:	e1a00006 	mov	r0, r6
    9988:	e58d1018 	str	r1, [sp, #24]
    998c:	e3a0200a 	mov	r2, #10
    9990:	e1a01007 	mov	r1, r7
    9994:	e3a03000 	mov	r3, #0
    9998:	eb000ab1 	bl	c464 <__aeabi_uldivmod>
    999c:	e1a06000 	mov	r6, r0
    99a0:	e1a07001 	mov	r7, r1
    99a4:	e1962007 	orrs	r2, r6, r7
    99a8:	e59dc004 	ldr	ip, [sp, #4]
    99ac:	1affffea 	bne	995c <_vfiprintf_r+0x7a0>
    99b0:	ea000017 	b	9a14 <_vfiprintf_r+0x858>
    99b4:	e28d3e1d 	add	r3, sp, #464	; 0x1d0
    99b8:	e2832027 	add	r2, r3, #39	; 0x27
    99bc:	e59d101c 	ldr	r1, [sp, #28]
    99c0:	e206300f 	and	r3, r6, #15
    99c4:	e7d13003 	ldrb	r3, [r1, r3]
    99c8:	e1a01226 	lsr	r1, r6, #4
    99cc:	e1a0a002 	mov	sl, r2
    99d0:	e1a00227 	lsr	r0, r7, #4
    99d4:	e4423001 	strb	r3, [r2], #-1
    99d8:	e1813e07 	orr	r3, r1, r7, lsl #28
    99dc:	e1a06003 	mov	r6, r3
    99e0:	e1a07000 	mov	r7, r0
    99e4:	e1963007 	orrs	r3, r6, r7
    99e8:	1afffff3 	bne	99bc <_vfiprintf_r+0x800>
    99ec:	ea000008 	b	9a14 <_vfiprintf_r+0x858>
    99f0:	e3530000 	cmp	r3, #0
    99f4:	1a000005 	bne	9a10 <_vfiprintf_r+0x854>
    99f8:	e3140001 	tst	r4, #1
    99fc:	12833030 	addne	r3, r3, #48	; 0x30
    9a00:	128d1e1d 	addne	r1, sp, #464	; 0x1d0
    9a04:	15cd31f7 	strbne	r3, [sp, #503]	; 0x1f7
    9a08:	1281a027 	addne	sl, r1, #39	; 0x27
    9a0c:	1a000000 	bne	9a14 <_vfiprintf_r+0x858>
    9a10:	e28daf7e 	add	sl, sp, #504	; 0x1f8
    9a14:	e28d6f7e 	add	r6, sp, #504	; 0x1f8
    9a18:	e06a6006 	rsb	r6, sl, r6
    9a1c:	e1a0700c 	mov	r7, ip
    9a20:	ea00000c 	b	9a58 <_vfiprintf_r+0x89c>
    9a24:	e58d200c 	str	r2, [sp, #12]
    9a28:	e58d1010 	str	r1, [sp, #16]
    9a2c:	e3530000 	cmp	r3, #0
    9a30:	0a000141 	beq	9f3c <_vfiprintf_r+0xd80>
    9a34:	e3a0c000 	mov	ip, #0
    9a38:	e5cd31d0 	strb	r3, [sp, #464]	; 0x1d0
    9a3c:	e5cdc207 	strb	ip, [sp, #519]	; 0x207
    9a40:	e1a08007 	mov	r8, r7
    9a44:	e3a06001 	mov	r6, #1
    9a48:	e1a0700c 	mov	r7, ip
    9a4c:	e28dae1d 	add	sl, sp, #464	; 0x1d0
    9a50:	ea000000 	b	9a58 <_vfiprintf_r+0x89c>
    9a54:	e1a07003 	mov	r7, r3
    9a58:	e5dd3207 	ldrb	r3, [sp, #519]	; 0x207
    9a5c:	e1560007 	cmp	r6, r7
    9a60:	a1a0c006 	movge	ip, r6
    9a64:	b1a0c007 	movlt	ip, r7
    9a68:	e3530000 	cmp	r3, #0
    9a6c:	e58dc018 	str	ip, [sp, #24]
    9a70:	128cc001 	addne	ip, ip, #1
    9a74:	158dc018 	strne	ip, [sp, #24]
    9a78:	e2141002 	ands	r1, r4, #2
    9a7c:	159d2018 	ldrne	r2, [sp, #24]
    9a80:	12822002 	addne	r2, r2, #2
    9a84:	158d2018 	strne	r2, [sp, #24]
    9a88:	e2143084 	ands	r3, r4, #132	; 0x84
    9a8c:	e58d1020 	str	r1, [sp, #32]
    9a90:	e58d3024 	str	r3, [sp, #36]	; 0x24
    9a94:	1a000039 	bne	9b80 <_vfiprintf_r+0x9c4>
    9a98:	e59dc010 	ldr	ip, [sp, #16]
    9a9c:	e59d1018 	ldr	r1, [sp, #24]
    9aa0:	e061300c 	rsb	r3, r1, ip
    9aa4:	e3530000 	cmp	r3, #0
    9aa8:	ca000015 	bgt	9b04 <_vfiprintf_r+0x948>
    9aac:	ea000033 	b	9b80 <_vfiprintf_r+0x9c4>
    9ab0:	e5832000 	str	r2, [r3]
    9ab4:	e3a02010 	mov	r2, #16
    9ab8:	e5832004 	str	r2, [r3, #4]
    9abc:	e59d2200 	ldr	r2, [sp, #512]	; 0x200
    9ac0:	e2822010 	add	r2, r2, #16
    9ac4:	e58d2200 	str	r2, [sp, #512]	; 0x200
    9ac8:	e59d21fc 	ldr	r2, [sp, #508]	; 0x1fc
    9acc:	e2822001 	add	r2, r2, #1
    9ad0:	e3520007 	cmp	r2, #7
    9ad4:	e58d21fc 	str	r2, [sp, #508]	; 0x1fc
    9ad8:	d2833008 	addle	r3, r3, #8
    9adc:	da000006 	ble	9afc <_vfiprintf_r+0x940>
    9ae0:	e1a0000b 	mov	r0, fp
    9ae4:	e1a01009 	mov	r1, r9
    9ae8:	e28d2f7e 	add	r2, sp, #504	; 0x1f8
    9aec:	ebfffd85 	bl	9108 <__sprint_r>
    9af0:	e3500000 	cmp	r0, #0
    9af4:	1a000119 	bne	9f60 <_vfiprintf_r+0xda4>
    9af8:	e28d3e19 	add	r3, sp, #400	; 0x190
    9afc:	e2444010 	sub	r4, r4, #16
    9b00:	ea000004 	b	9b18 <_vfiprintf_r+0x95c>
    9b04:	e1a02004 	mov	r2, r4
    9b08:	e1a04003 	mov	r4, r3
    9b0c:	e1a03005 	mov	r3, r5
    9b10:	e1a0500a 	mov	r5, sl
    9b14:	e1a0a002 	mov	sl, r2
    9b18:	e3540010 	cmp	r4, #16
    9b1c:	e59f246c 	ldr	r2, [pc, #1132]	; 9f90 <_vfiprintf_r+0xdd4>
    9b20:	caffffe2 	bgt	9ab0 <_vfiprintf_r+0x8f4>
    9b24:	e1a0100a 	mov	r1, sl
    9b28:	e1a0a005 	mov	sl, r5
    9b2c:	e1a05003 	mov	r5, r3
    9b30:	e5852000 	str	r2, [r5]
    9b34:	e59d2200 	ldr	r2, [sp, #512]	; 0x200
    9b38:	e1a03004 	mov	r3, r4
    9b3c:	e5853004 	str	r3, [r5, #4]
    9b40:	e0823003 	add	r3, r2, r3
    9b44:	e58d3200 	str	r3, [sp, #512]	; 0x200
    9b48:	e59d31fc 	ldr	r3, [sp, #508]	; 0x1fc
    9b4c:	e2833001 	add	r3, r3, #1
    9b50:	e3530007 	cmp	r3, #7
    9b54:	e1a04001 	mov	r4, r1
    9b58:	e58d31fc 	str	r3, [sp, #508]	; 0x1fc
    9b5c:	d2855008 	addle	r5, r5, #8
    9b60:	da000006 	ble	9b80 <_vfiprintf_r+0x9c4>
    9b64:	e1a0000b 	mov	r0, fp
    9b68:	e1a01009 	mov	r1, r9
    9b6c:	e28d2f7e 	add	r2, sp, #504	; 0x1f8
    9b70:	ebfffd64 	bl	9108 <__sprint_r>
    9b74:	e3500000 	cmp	r0, #0
    9b78:	1a0000f8 	bne	9f60 <_vfiprintf_r+0xda4>
    9b7c:	e28d5e19 	add	r5, sp, #400	; 0x190
    9b80:	e5dd3207 	ldrb	r3, [sp, #519]	; 0x207
    9b84:	e3530000 	cmp	r3, #0
    9b88:	0a000014 	beq	9be0 <_vfiprintf_r+0xa24>
    9b8c:	e28d3f81 	add	r3, sp, #516	; 0x204
    9b90:	e2833003 	add	r3, r3, #3
    9b94:	e5853000 	str	r3, [r5]
    9b98:	e3a03001 	mov	r3, #1
    9b9c:	e5853004 	str	r3, [r5, #4]
    9ba0:	e59d3200 	ldr	r3, [sp, #512]	; 0x200
    9ba4:	e2833001 	add	r3, r3, #1
    9ba8:	e58d3200 	str	r3, [sp, #512]	; 0x200
    9bac:	e59d31fc 	ldr	r3, [sp, #508]	; 0x1fc
    9bb0:	e2833001 	add	r3, r3, #1
    9bb4:	e3530007 	cmp	r3, #7
    9bb8:	e58d31fc 	str	r3, [sp, #508]	; 0x1fc
    9bbc:	d2855008 	addle	r5, r5, #8
    9bc0:	da000006 	ble	9be0 <_vfiprintf_r+0xa24>
    9bc4:	e1a0000b 	mov	r0, fp
    9bc8:	e1a01009 	mov	r1, r9
    9bcc:	e28d2f7e 	add	r2, sp, #504	; 0x1f8
    9bd0:	ebfffd4c 	bl	9108 <__sprint_r>
    9bd4:	e3500000 	cmp	r0, #0
    9bd8:	1a0000e0 	bne	9f60 <_vfiprintf_r+0xda4>
    9bdc:	e28d5e19 	add	r5, sp, #400	; 0x190
    9be0:	e59d2020 	ldr	r2, [sp, #32]
    9be4:	e3520000 	cmp	r2, #0
    9be8:	0a000013 	beq	9c3c <_vfiprintf_r+0xa80>
    9bec:	e28d3f81 	add	r3, sp, #516	; 0x204
    9bf0:	e5853000 	str	r3, [r5]
    9bf4:	e3a03002 	mov	r3, #2
    9bf8:	e5853004 	str	r3, [r5, #4]
    9bfc:	e59d3200 	ldr	r3, [sp, #512]	; 0x200
    9c00:	e2833002 	add	r3, r3, #2
    9c04:	e58d3200 	str	r3, [sp, #512]	; 0x200
    9c08:	e59d31fc 	ldr	r3, [sp, #508]	; 0x1fc
    9c0c:	e2833001 	add	r3, r3, #1
    9c10:	e3530007 	cmp	r3, #7
    9c14:	e58d31fc 	str	r3, [sp, #508]	; 0x1fc
    9c18:	d2855008 	addle	r5, r5, #8
    9c1c:	da000006 	ble	9c3c <_vfiprintf_r+0xa80>
    9c20:	e1a0000b 	mov	r0, fp
    9c24:	e1a01009 	mov	r1, r9
    9c28:	e28d2f7e 	add	r2, sp, #504	; 0x1f8
    9c2c:	ebfffd35 	bl	9108 <__sprint_r>
    9c30:	e3500000 	cmp	r0, #0
    9c34:	1a0000c9 	bne	9f60 <_vfiprintf_r+0xda4>
    9c38:	e28d5e19 	add	r5, sp, #400	; 0x190
    9c3c:	e59d3024 	ldr	r3, [sp, #36]	; 0x24
    9c40:	e3530080 	cmp	r3, #128	; 0x80
    9c44:	1a000039 	bne	9d30 <_vfiprintf_r+0xb74>
    9c48:	e59dc010 	ldr	ip, [sp, #16]
    9c4c:	e59d1018 	ldr	r1, [sp, #24]
    9c50:	e061300c 	rsb	r3, r1, ip
    9c54:	e3530000 	cmp	r3, #0
    9c58:	ca000015 	bgt	9cb4 <_vfiprintf_r+0xaf8>
    9c5c:	ea000033 	b	9d30 <_vfiprintf_r+0xb74>
    9c60:	e5832000 	str	r2, [r3]
    9c64:	e3a02010 	mov	r2, #16
    9c68:	e5832004 	str	r2, [r3, #4]
    9c6c:	e59d2200 	ldr	r2, [sp, #512]	; 0x200
    9c70:	e2822010 	add	r2, r2, #16
    9c74:	e58d2200 	str	r2, [sp, #512]	; 0x200
    9c78:	e59d21fc 	ldr	r2, [sp, #508]	; 0x1fc
    9c7c:	e2822001 	add	r2, r2, #1
    9c80:	e3520007 	cmp	r2, #7
    9c84:	e58d21fc 	str	r2, [sp, #508]	; 0x1fc
    9c88:	d2833008 	addle	r3, r3, #8
    9c8c:	da000006 	ble	9cac <_vfiprintf_r+0xaf0>
    9c90:	e1a0000b 	mov	r0, fp
    9c94:	e1a01009 	mov	r1, r9
    9c98:	e28d2f7e 	add	r2, sp, #504	; 0x1f8
    9c9c:	ebfffd19 	bl	9108 <__sprint_r>
    9ca0:	e3500000 	cmp	r0, #0
    9ca4:	1a0000ad 	bne	9f60 <_vfiprintf_r+0xda4>
    9ca8:	e28d3e19 	add	r3, sp, #400	; 0x190
    9cac:	e2444010 	sub	r4, r4, #16
    9cb0:	ea000004 	b	9cc8 <_vfiprintf_r+0xb0c>
    9cb4:	e1a02004 	mov	r2, r4
    9cb8:	e1a04003 	mov	r4, r3
    9cbc:	e1a03005 	mov	r3, r5
    9cc0:	e1a0500a 	mov	r5, sl
    9cc4:	e1a0a002 	mov	sl, r2
    9cc8:	e3540010 	cmp	r4, #16
    9ccc:	e59f22c0 	ldr	r2, [pc, #704]	; 9f94 <_vfiprintf_r+0xdd8>
    9cd0:	caffffe2 	bgt	9c60 <_vfiprintf_r+0xaa4>
    9cd4:	e1a0100a 	mov	r1, sl
    9cd8:	e1a0a005 	mov	sl, r5
    9cdc:	e1a05003 	mov	r5, r3
    9ce0:	e5852000 	str	r2, [r5]
    9ce4:	e59d2200 	ldr	r2, [sp, #512]	; 0x200
    9ce8:	e1a03004 	mov	r3, r4
    9cec:	e5853004 	str	r3, [r5, #4]
    9cf0:	e0823003 	add	r3, r2, r3
    9cf4:	e58d3200 	str	r3, [sp, #512]	; 0x200
    9cf8:	e59d31fc 	ldr	r3, [sp, #508]	; 0x1fc
    9cfc:	e2833001 	add	r3, r3, #1
    9d00:	e3530007 	cmp	r3, #7
    9d04:	e1a04001 	mov	r4, r1
    9d08:	e58d31fc 	str	r3, [sp, #508]	; 0x1fc
    9d0c:	d2855008 	addle	r5, r5, #8
    9d10:	da000006 	ble	9d30 <_vfiprintf_r+0xb74>
    9d14:	e1a0000b 	mov	r0, fp
    9d18:	e1a01009 	mov	r1, r9
    9d1c:	e28d2f7e 	add	r2, sp, #504	; 0x1f8
    9d20:	ebfffcf8 	bl	9108 <__sprint_r>
    9d24:	e3500000 	cmp	r0, #0
    9d28:	1a00008c 	bne	9f60 <_vfiprintf_r+0xda4>
    9d2c:	e28d5e19 	add	r5, sp, #400	; 0x190
    9d30:	e0667007 	rsb	r7, r6, r7
    9d34:	e3570000 	cmp	r7, #0
    9d38:	ca000014 	bgt	9d90 <_vfiprintf_r+0xbd4>
    9d3c:	ea000028 	b	9de4 <_vfiprintf_r+0xc28>
    9d40:	e5853000 	str	r3, [r5]
    9d44:	e3a03010 	mov	r3, #16
    9d48:	e5853004 	str	r3, [r5, #4]
    9d4c:	e59d3200 	ldr	r3, [sp, #512]	; 0x200
    9d50:	e2833010 	add	r3, r3, #16
    9d54:	e58d3200 	str	r3, [sp, #512]	; 0x200
    9d58:	e59d31fc 	ldr	r3, [sp, #508]	; 0x1fc
    9d5c:	e2833001 	add	r3, r3, #1
    9d60:	e3530007 	cmp	r3, #7
    9d64:	e58d31fc 	str	r3, [sp, #508]	; 0x1fc
    9d68:	d2855008 	addle	r5, r5, #8
    9d6c:	da000006 	ble	9d8c <_vfiprintf_r+0xbd0>
    9d70:	e1a0000b 	mov	r0, fp
    9d74:	e1a01009 	mov	r1, r9
    9d78:	e28d2f7e 	add	r2, sp, #504	; 0x1f8
    9d7c:	ebfffce1 	bl	9108 <__sprint_r>
    9d80:	e3500000 	cmp	r0, #0
    9d84:	1a000075 	bne	9f60 <_vfiprintf_r+0xda4>
    9d88:	e28d5e19 	add	r5, sp, #400	; 0x190
    9d8c:	e2477010 	sub	r7, r7, #16
    9d90:	e3570010 	cmp	r7, #16
    9d94:	e59f31f8 	ldr	r3, [pc, #504]	; 9f94 <_vfiprintf_r+0xdd8>
    9d98:	caffffe8 	bgt	9d40 <_vfiprintf_r+0xb84>
    9d9c:	e5853000 	str	r3, [r5]
    9da0:	e28d3f7f 	add	r3, sp, #508	; 0x1fc
    9da4:	e8931008 	ldm	r3, {r3, ip}
    9da8:	e2833001 	add	r3, r3, #1
    9dac:	e5857004 	str	r7, [r5, #4]
    9db0:	e3530007 	cmp	r3, #7
    9db4:	e08c7007 	add	r7, ip, r7
    9db8:	e58d7200 	str	r7, [sp, #512]	; 0x200
    9dbc:	e58d31fc 	str	r3, [sp, #508]	; 0x1fc
    9dc0:	d2855008 	addle	r5, r5, #8
    9dc4:	da000006 	ble	9de4 <_vfiprintf_r+0xc28>
    9dc8:	e1a0000b 	mov	r0, fp
    9dcc:	e1a01009 	mov	r1, r9
    9dd0:	e28d2f7e 	add	r2, sp, #504	; 0x1f8
    9dd4:	ebfffccb 	bl	9108 <__sprint_r>
    9dd8:	e3500000 	cmp	r0, #0
    9ddc:	1a00005f 	bne	9f60 <_vfiprintf_r+0xda4>
    9de0:	e28d5e19 	add	r5, sp, #400	; 0x190
    9de4:	e59d3200 	ldr	r3, [sp, #512]	; 0x200
    9de8:	e5856004 	str	r6, [r5, #4]
    9dec:	e0836006 	add	r6, r3, r6
    9df0:	e59d31fc 	ldr	r3, [sp, #508]	; 0x1fc
    9df4:	e2833001 	add	r3, r3, #1
    9df8:	e3530007 	cmp	r3, #7
    9dfc:	e585a000 	str	sl, [r5]
    9e00:	e58d6200 	str	r6, [sp, #512]	; 0x200
    9e04:	e58d31fc 	str	r3, [sp, #508]	; 0x1fc
    9e08:	d2855008 	addle	r5, r5, #8
    9e0c:	da000006 	ble	9e2c <_vfiprintf_r+0xc70>
    9e10:	e1a0000b 	mov	r0, fp
    9e14:	e1a01009 	mov	r1, r9
    9e18:	e28d2f7e 	add	r2, sp, #504	; 0x1f8
    9e1c:	ebfffcb9 	bl	9108 <__sprint_r>
    9e20:	e3500000 	cmp	r0, #0
    9e24:	1a00004d 	bne	9f60 <_vfiprintf_r+0xda4>
    9e28:	e28d5e19 	add	r5, sp, #400	; 0x190
    9e2c:	e3140004 	tst	r4, #4
    9e30:	0a00002c 	beq	9ee8 <_vfiprintf_r+0xd2c>
    9e34:	e59d2010 	ldr	r2, [sp, #16]
    9e38:	e59d3018 	ldr	r3, [sp, #24]
    9e3c:	e0634002 	rsb	r4, r3, r2
    9e40:	e3540000 	cmp	r4, #0
    9e44:	ca000014 	bgt	9e9c <_vfiprintf_r+0xce0>
    9e48:	ea000026 	b	9ee8 <_vfiprintf_r+0xd2c>
    9e4c:	e5853000 	str	r3, [r5]
    9e50:	e3a03010 	mov	r3, #16
    9e54:	e5853004 	str	r3, [r5, #4]
    9e58:	e59d3200 	ldr	r3, [sp, #512]	; 0x200
    9e5c:	e2833010 	add	r3, r3, #16
    9e60:	e58d3200 	str	r3, [sp, #512]	; 0x200
    9e64:	e59d31fc 	ldr	r3, [sp, #508]	; 0x1fc
    9e68:	e2833001 	add	r3, r3, #1
    9e6c:	e3530007 	cmp	r3, #7
    9e70:	e58d31fc 	str	r3, [sp, #508]	; 0x1fc
    9e74:	d2855008 	addle	r5, r5, #8
    9e78:	da000006 	ble	9e98 <_vfiprintf_r+0xcdc>
    9e7c:	e1a0000b 	mov	r0, fp
    9e80:	e1a01009 	mov	r1, r9
    9e84:	e28d2f7e 	add	r2, sp, #504	; 0x1f8
    9e88:	ebfffc9e 	bl	9108 <__sprint_r>
    9e8c:	e3500000 	cmp	r0, #0
    9e90:	1a000032 	bne	9f60 <_vfiprintf_r+0xda4>
    9e94:	e28d5e19 	add	r5, sp, #400	; 0x190
    9e98:	e2444010 	sub	r4, r4, #16
    9e9c:	e3540010 	cmp	r4, #16
    9ea0:	e59f30e8 	ldr	r3, [pc, #232]	; 9f90 <_vfiprintf_r+0xdd4>
    9ea4:	caffffe8 	bgt	9e4c <_vfiprintf_r+0xc90>
    9ea8:	e5853000 	str	r3, [r5]
    9eac:	e59d3200 	ldr	r3, [sp, #512]	; 0x200
    9eb0:	e5854004 	str	r4, [r5, #4]
    9eb4:	e0834004 	add	r4, r3, r4
    9eb8:	e59d31fc 	ldr	r3, [sp, #508]	; 0x1fc
    9ebc:	e2833001 	add	r3, r3, #1
    9ec0:	e3530007 	cmp	r3, #7
    9ec4:	e58d4200 	str	r4, [sp, #512]	; 0x200
    9ec8:	e58d31fc 	str	r3, [sp, #508]	; 0x1fc
    9ecc:	da000005 	ble	9ee8 <_vfiprintf_r+0xd2c>
    9ed0:	e1a0000b 	mov	r0, fp
    9ed4:	e1a01009 	mov	r1, r9
    9ed8:	e28d2f7e 	add	r2, sp, #504	; 0x1f8
    9edc:	ebfffc89 	bl	9108 <__sprint_r>
    9ee0:	e3500000 	cmp	r0, #0
    9ee4:	1a00001d 	bne	9f60 <_vfiprintf_r+0xda4>
    9ee8:	e59dc014 	ldr	ip, [sp, #20]
    9eec:	e59d1018 	ldr	r1, [sp, #24]
    9ef0:	e59d2010 	ldr	r2, [sp, #16]
    9ef4:	e59d3200 	ldr	r3, [sp, #512]	; 0x200
    9ef8:	e1510002 	cmp	r1, r2
    9efc:	a08cc001 	addge	ip, ip, r1
    9f00:	b08cc002 	addlt	ip, ip, r2
    9f04:	e3530000 	cmp	r3, #0
    9f08:	e58dc014 	str	ip, [sp, #20]
    9f0c:	0a000005 	beq	9f28 <_vfiprintf_r+0xd6c>
    9f10:	e1a0000b 	mov	r0, fp
    9f14:	e1a01009 	mov	r1, r9
    9f18:	e28d2f7e 	add	r2, sp, #504	; 0x1f8
    9f1c:	ebfffc79 	bl	9108 <__sprint_r>
    9f20:	e3500000 	cmp	r0, #0
    9f24:	1a00000d 	bne	9f60 <_vfiprintf_r+0xda4>
    9f28:	e3a03000 	mov	r3, #0
    9f2c:	e58d31fc 	str	r3, [sp, #508]	; 0x1fc
    9f30:	e1a07008 	mov	r7, r8
    9f34:	e28d5e19 	add	r5, sp, #400	; 0x190
    9f38:	eafffcf7 	b	931c <_vfiprintf_r+0x160>
    9f3c:	e59d3200 	ldr	r3, [sp, #512]	; 0x200
    9f40:	e3530000 	cmp	r3, #0
    9f44:	e1a06009 	mov	r6, r9
    9f48:	0a000005 	beq	9f64 <_vfiprintf_r+0xda8>
    9f4c:	e1a0000b 	mov	r0, fp
    9f50:	e1a01009 	mov	r1, r9
    9f54:	e28d2f7e 	add	r2, sp, #504	; 0x1f8
    9f58:	ebfffc6a 	bl	9108 <__sprint_r>
    9f5c:	ea000000 	b	9f64 <_vfiprintf_r+0xda8>
    9f60:	e1a06009 	mov	r6, r9
    9f64:	e1d630bc 	ldrh	r3, [r6, #12]
    9f68:	e3130040 	tst	r3, #64	; 0x40
    9f6c:	e59d3014 	ldr	r3, [sp, #20]
    9f70:	13e03000 	mvnne	r3, #0
    9f74:	e58d3014 	str	r3, [sp, #20]
    9f78:	e59d0014 	ldr	r0, [sp, #20]
    9f7c:	e28ddf83 	add	sp, sp, #524	; 0x20c
    9f80:	e8bd4ff0 	pop	{r4, r5, r6, r7, r8, r9, sl, fp, lr}
    9f84:	e12fff1e 	bx	lr
    9f88:	0000ce9d 	.word	0x0000ce9d
    9f8c:	0000ce8c 	.word	0x0000ce8c
    9f90:	0000d014 	.word	0x0000d014
    9f94:	0000d004 	.word	0x0000d004

00009f98 <vfiprintf>:
    9f98:	e52d4004 	push	{r4}		; (str r4, [sp, #-4]!)
    9f9c:	e1a03002 	mov	r3, r2
    9fa0:	e59f2018 	ldr	r2, [pc, #24]	; 9fc0 <vfiprintf+0x28>
    9fa4:	e1a04000 	mov	r4, r0
    9fa8:	e1a0c001 	mov	ip, r1
    9fac:	e5920000 	ldr	r0, [r2]
    9fb0:	e1a01004 	mov	r1, r4
    9fb4:	e1a0200c 	mov	r2, ip
    9fb8:	e49d4004 	pop	{r4}		; (ldr r4, [sp], #4)
    9fbc:	eafffc7e 	b	91bc <_vfiprintf_r>
    9fc0:	40000428 	.word	0x40000428

00009fc4 <_write_r>:
    9fc4:	e92d4038 	push	{r3, r4, r5, lr}
    9fc8:	e59f4034 	ldr	r4, [pc, #52]	; a004 <_write_r+0x40>
    9fcc:	e1a05000 	mov	r5, r0
    9fd0:	e3a00000 	mov	r0, #0
    9fd4:	e5840000 	str	r0, [r4]
    9fd8:	e1a00001 	mov	r0, r1
    9fdc:	e1a01002 	mov	r1, r2
    9fe0:	e1a02003 	mov	r2, r3
    9fe4:	eb000469 	bl	b190 <_write>
    9fe8:	e3700001 	cmn	r0, #1
    9fec:	1a000002 	bne	9ffc <_write_r+0x38>
    9ff0:	e5943000 	ldr	r3, [r4]
    9ff4:	e3530000 	cmp	r3, #0
    9ff8:	15853000 	strne	r3, [r5]
    9ffc:	e8bd4038 	pop	{r3, r4, r5, lr}
    a000:	e12fff1e 	bx	lr
    a004:	40000928 	.word	0x40000928

0000a008 <_calloc_r>:
    a008:	e92d4010 	push	{r4, lr}
    a00c:	e0010192 	mul	r1, r2, r1
    a010:	ebfff73a 	bl	7d00 <_malloc_r>
    a014:	e2504000 	subs	r4, r0, #0
    a018:	0a00001e 	beq	a098 <_calloc_r+0x90>
    a01c:	e5142004 	ldr	r2, [r4, #-4]
    a020:	e3c22003 	bic	r2, r2, #3
    a024:	e2422004 	sub	r2, r2, #4
    a028:	e3520024 	cmp	r2, #36	; 0x24
    a02c:	8a000017 	bhi	a090 <_calloc_r+0x88>
    a030:	e3520013 	cmp	r2, #19
    a034:	e1a03004 	mov	r3, r4
    a038:	9a00000e 	bls	a078 <_calloc_r+0x70>
    a03c:	e3a01000 	mov	r1, #0
    a040:	e1a00004 	mov	r0, r4
    a044:	e4801004 	str	r1, [r0], #4
    a048:	e352001b 	cmp	r2, #27
    a04c:	e5841004 	str	r1, [r4, #4]
    a050:	e2803004 	add	r3, r0, #4
    a054:	9a000007 	bls	a078 <_calloc_r+0x70>
    a058:	e5801004 	str	r1, [r0, #4]
    a05c:	e3520024 	cmp	r2, #36	; 0x24
    a060:	e5831004 	str	r1, [r3, #4]
    a064:	e2830004 	add	r0, r3, #4
    a068:	e2833008 	add	r3, r3, #8
    a06c:	05801004 	streq	r1, [r0, #4]
    a070:	05831004 	streq	r1, [r3, #4]
    a074:	02833008 	addeq	r3, r3, #8
    a078:	e3a01000 	mov	r1, #0
    a07c:	e1a02003 	mov	r2, r3
    a080:	e4821004 	str	r1, [r2], #4
    a084:	e5831004 	str	r1, [r3, #4]
    a088:	e5821004 	str	r1, [r2, #4]
    a08c:	ea000001 	b	a098 <_calloc_r+0x90>
    a090:	e3a01000 	mov	r1, #0
    a094:	ebfff8aa 	bl	8344 <memset>
    a098:	e1a00004 	mov	r0, r4
    a09c:	e8bd4010 	pop	{r4, lr}
    a0a0:	e12fff1e 	bx	lr

0000a0a4 <_close_r>:
    a0a4:	e92d4038 	push	{r3, r4, r5, lr}
    a0a8:	e59f402c 	ldr	r4, [pc, #44]	; a0dc <_close_r+0x38>
    a0ac:	e3a03000 	mov	r3, #0
    a0b0:	e1a05000 	mov	r5, r0
    a0b4:	e1a00001 	mov	r0, r1
    a0b8:	e5843000 	str	r3, [r4]
    a0bc:	eb000491 	bl	b308 <_close>
    a0c0:	e3700001 	cmn	r0, #1
    a0c4:	1a000002 	bne	a0d4 <_close_r+0x30>
    a0c8:	e5943000 	ldr	r3, [r4]
    a0cc:	e3530000 	cmp	r3, #0
    a0d0:	15853000 	strne	r3, [r5]
    a0d4:	e8bd4038 	pop	{r3, r4, r5, lr}
    a0d8:	e12fff1e 	bx	lr
    a0dc:	40000928 	.word	0x40000928

0000a0e0 <_fclose_r>:
    a0e0:	e92d4070 	push	{r4, r5, r6, lr}
    a0e4:	e2514000 	subs	r4, r1, #0
    a0e8:	e1a05000 	mov	r5, r0
    a0ec:	01a06004 	moveq	r6, r4
    a0f0:	0a00002e 	beq	a1b0 <_fclose_r+0xd0>
    a0f4:	ebfff554 	bl	764c <__sfp_lock_acquire>
    a0f8:	e3550000 	cmp	r5, #0
    a0fc:	0a000003 	beq	a110 <_fclose_r+0x30>
    a100:	e5953038 	ldr	r3, [r5, #56]	; 0x38
    a104:	e3530000 	cmp	r3, #0
    a108:	01a00005 	moveq	r0, r5
    a10c:	0bfff4fa 	bleq	74fc <__sinit>
    a110:	e1d460fc 	ldrsh	r6, [r4, #12]
    a114:	e3560000 	cmp	r6, #0
    a118:	0a000023 	beq	a1ac <_fclose_r+0xcc>
    a11c:	e1a00005 	mov	r0, r5
    a120:	e1a01004 	mov	r1, r4
    a124:	ebfff41d 	bl	71a0 <_fflush_r>
    a128:	e594302c 	ldr	r3, [r4, #44]	; 0x2c
    a12c:	e3530000 	cmp	r3, #0
    a130:	e1a06000 	mov	r6, r0
    a134:	0a000005 	beq	a150 <_fclose_r+0x70>
    a138:	e1a00005 	mov	r0, r5
    a13c:	e594101c 	ldr	r1, [r4, #28]
    a140:	e1a0e00f 	mov	lr, pc
    a144:	e12fff13 	bx	r3
    a148:	e3500000 	cmp	r0, #0
    a14c:	b3e06000 	mvnlt	r6, #0
    a150:	e1d430bc 	ldrh	r3, [r4, #12]
    a154:	e3130080 	tst	r3, #128	; 0x80
    a158:	11a00005 	movne	r0, r5
    a15c:	15941010 	ldrne	r1, [r4, #16]
    a160:	1bfff58d 	blne	779c <_free_r>
    a164:	e5941030 	ldr	r1, [r4, #48]	; 0x30
    a168:	e3510000 	cmp	r1, #0
    a16c:	0a000005 	beq	a188 <_fclose_r+0xa8>
    a170:	e2843040 	add	r3, r4, #64	; 0x40
    a174:	e1510003 	cmp	r1, r3
    a178:	11a00005 	movne	r0, r5
    a17c:	1bfff586 	blne	779c <_free_r>
    a180:	e3a03000 	mov	r3, #0
    a184:	e5843030 	str	r3, [r4, #48]	; 0x30
    a188:	e5941044 	ldr	r1, [r4, #68]	; 0x44
    a18c:	e3510000 	cmp	r1, #0
    a190:	0a000003 	beq	a1a4 <_fclose_r+0xc4>
    a194:	e1a00005 	mov	r0, r5
    a198:	ebfff57f 	bl	779c <_free_r>
    a19c:	e3a03000 	mov	r3, #0
    a1a0:	e5843044 	str	r3, [r4, #68]	; 0x44
    a1a4:	e3a03000 	mov	r3, #0
    a1a8:	e1c430bc 	strh	r3, [r4, #12]
    a1ac:	ebfff527 	bl	7650 <__sfp_lock_release>
    a1b0:	e1a00006 	mov	r0, r6
    a1b4:	e8bd4070 	pop	{r4, r5, r6, lr}
    a1b8:	e12fff1e 	bx	lr

0000a1bc <fclose>:
    a1bc:	e59f3008 	ldr	r3, [pc, #8]	; a1cc <fclose+0x10>
    a1c0:	e1a01000 	mov	r1, r0
    a1c4:	e5930000 	ldr	r0, [r3]
    a1c8:	eaffffc4 	b	a0e0 <_fclose_r>
    a1cc:	40000428 	.word	0x40000428

0000a1d0 <_fputwc_r>:
    a1d0:	e1d230bc 	ldrh	r3, [r2, #12]
    a1d4:	e3130a02 	tst	r3, #8192	; 0x2000
    a1d8:	03833a02 	orreq	r3, r3, #8192	; 0x2000
    a1dc:	e92d41f3 	push	{r0, r1, r4, r5, r6, r7, r8, lr}
    a1e0:	01c230bc 	strheq	r3, [r2, #12]
    a1e4:	05923064 	ldreq	r3, [r2, #100]	; 0x64
    a1e8:	03833a02 	orreq	r3, r3, #8192	; 0x2000
    a1ec:	05823064 	streq	r3, [r2, #100]	; 0x64
    a1f0:	e1a06000 	mov	r6, r0
    a1f4:	e1a05001 	mov	r5, r1
    a1f8:	e1a04002 	mov	r4, r2
    a1fc:	ebfff653 	bl	7b50 <__locale_mb_cur_max>
    a200:	e3500001 	cmp	r0, #1
    a204:	1a000008 	bne	a22c <_fputwc_r+0x5c>
    a208:	e35500ff 	cmp	r5, #255	; 0xff
    a20c:	83a03000 	movhi	r3, #0
    a210:	93a03001 	movls	r3, #1
    a214:	e3550000 	cmp	r5, #0
    a218:	03a03000 	moveq	r3, #0
    a21c:	e3530000 	cmp	r3, #0
    a220:	15cd5004 	strbne	r5, [sp, #4]
    a224:	11a08000 	movne	r8, r0
    a228:	1a00000a 	bne	a258 <_fputwc_r+0x88>
    a22c:	e1a00006 	mov	r0, r6
    a230:	e28d1004 	add	r1, sp, #4
    a234:	e1a02005 	mov	r2, r5
    a238:	e284305c 	add	r3, r4, #92	; 0x5c
    a23c:	eb000389 	bl	b068 <_wcrtomb_r>
    a240:	e3700001 	cmn	r0, #1
    a244:	e1a08000 	mov	r8, r0
    a248:	01d430bc 	ldrheq	r3, [r4, #12]
    a24c:	03833040 	orreq	r3, r3, #64	; 0x40
    a250:	01c430bc 	strheq	r3, [r4, #12]
    a254:	0a00002d 	beq	a310 <_fputwc_r+0x140>
    a258:	e3a07000 	mov	r7, #0
    a25c:	ea000026 	b	a2fc <_fputwc_r+0x12c>
    a260:	e5942008 	ldr	r2, [r4, #8]
    a264:	e2422001 	sub	r2, r2, #1
    a268:	e3520000 	cmp	r2, #0
    a26c:	e5842008 	str	r2, [r4, #8]
    a270:	e28d3004 	add	r3, sp, #4
    a274:	aa000016 	bge	a2d4 <_fputwc_r+0x104>
    a278:	e5941018 	ldr	r1, [r4, #24]
    a27c:	e1520001 	cmp	r2, r1
    a280:	ba00000b 	blt	a2b4 <_fputwc_r+0xe4>
    a284:	e7d33007 	ldrb	r3, [r3, r7]
    a288:	e5942000 	ldr	r2, [r4]
    a28c:	e5c23000 	strb	r3, [r2]
    a290:	e5943000 	ldr	r3, [r4]
    a294:	e5d31000 	ldrb	r1, [r3]
    a298:	e351000a 	cmp	r1, #10
    a29c:	12833001 	addne	r3, r3, #1
    a2a0:	13a00000 	movne	r0, #0
    a2a4:	15843000 	strne	r3, [r4]
    a2a8:	01a00006 	moveq	r0, r6
    a2ac:	1a00000f 	bne	a2f0 <_fputwc_r+0x120>
    a2b0:	ea000001 	b	a2bc <_fputwc_r+0xec>
    a2b4:	e7d31007 	ldrb	r1, [r3, r7]
    a2b8:	e1a00006 	mov	r0, r6
    a2bc:	e1a02004 	mov	r2, r4
    a2c0:	eb000319 	bl	af2c <__swbuf_r>
    a2c4:	e3700001 	cmn	r0, #1
    a2c8:	13a00000 	movne	r0, #0
    a2cc:	03a00001 	moveq	r0, #1
    a2d0:	ea000006 	b	a2f0 <_fputwc_r+0x120>
    a2d4:	e7d33007 	ldrb	r3, [r3, r7]
    a2d8:	e5942000 	ldr	r2, [r4]
    a2dc:	e5c23000 	strb	r3, [r2]
    a2e0:	e5943000 	ldr	r3, [r4]
    a2e4:	e2833001 	add	r3, r3, #1
    a2e8:	e5843000 	str	r3, [r4]
    a2ec:	ea000001 	b	a2f8 <_fputwc_r+0x128>
    a2f0:	e3500000 	cmp	r0, #0
    a2f4:	1a000004 	bne	a30c <_fputwc_r+0x13c>
    a2f8:	e2877001 	add	r7, r7, #1
    a2fc:	e1570008 	cmp	r7, r8
    a300:	1affffd6 	bne	a260 <_fputwc_r+0x90>
    a304:	e1a00005 	mov	r0, r5
    a308:	ea000000 	b	a310 <_fputwc_r+0x140>
    a30c:	e3e00000 	mvn	r0, #0
    a310:	e8bd41fc 	pop	{r2, r3, r4, r5, r6, r7, r8, lr}
    a314:	e12fff1e 	bx	lr

0000a318 <fputwc>:
    a318:	e92d4070 	push	{r4, r5, r6, lr}
    a31c:	e59f6030 	ldr	r6, [pc, #48]	; a354 <fputwc+0x3c>
    a320:	e1a05000 	mov	r5, r0
    a324:	e5960000 	ldr	r0, [r6]
    a328:	e3500000 	cmp	r0, #0
    a32c:	e1a04001 	mov	r4, r1
    a330:	0a000002 	beq	a340 <fputwc+0x28>
    a334:	e5903038 	ldr	r3, [r0, #56]	; 0x38
    a338:	e3530000 	cmp	r3, #0
    a33c:	0bfff46e 	bleq	74fc <__sinit>
    a340:	e5960000 	ldr	r0, [r6]
    a344:	e1a01005 	mov	r1, r5
    a348:	e1a02004 	mov	r2, r4
    a34c:	e8bd4070 	pop	{r4, r5, r6, lr}
    a350:	eaffff9e 	b	a1d0 <_fputwc_r>
    a354:	40000428 	.word	0x40000428

0000a358 <_fstat_r>:
    a358:	e92d4038 	push	{r3, r4, r5, lr}
    a35c:	e59f4030 	ldr	r4, [pc, #48]	; a394 <_fstat_r+0x3c>
    a360:	e3a03000 	mov	r3, #0
    a364:	e1a05000 	mov	r5, r0
    a368:	e1a00001 	mov	r0, r1
    a36c:	e1a01002 	mov	r1, r2
    a370:	e5843000 	str	r3, [r4]
    a374:	eb0003e7 	bl	b318 <_fstat>
    a378:	e3700001 	cmn	r0, #1
    a37c:	1a000002 	bne	a38c <_fstat_r+0x34>
    a380:	e5943000 	ldr	r3, [r4]
    a384:	e3530000 	cmp	r3, #0
    a388:	15853000 	strne	r3, [r5]
    a38c:	e8bd4038 	pop	{r3, r4, r5, lr}
    a390:	e12fff1e 	bx	lr
    a394:	40000928 	.word	0x40000928

0000a398 <__sfvwrite_r>:
    a398:	e92d4ff0 	push	{r4, r5, r6, r7, r8, r9, sl, fp, lr}
    a39c:	e1a06000 	mov	r6, r0
    a3a0:	e5920008 	ldr	r0, [r2, #8]
    a3a4:	e3500000 	cmp	r0, #0
    a3a8:	e24dd014 	sub	sp, sp, #20
    a3ac:	e1a04001 	mov	r4, r1
    a3b0:	e1a08002 	mov	r8, r2
    a3b4:	0a00010b 	beq	a7e8 <__sfvwrite_r+0x450>
    a3b8:	e1d130bc 	ldrh	r3, [r1, #12]
    a3bc:	e3130008 	tst	r3, #8
    a3c0:	0a000002 	beq	a3d0 <__sfvwrite_r+0x38>
    a3c4:	e5913010 	ldr	r3, [r1, #16]
    a3c8:	e3530000 	cmp	r3, #0
    a3cc:	1a00000a 	bne	a3fc <__sfvwrite_r+0x64>
    a3d0:	e1a00006 	mov	r0, r6
    a3d4:	e1a01004 	mov	r1, r4
    a3d8:	ebffee03 	bl	5bec <__swsetup_r>
    a3dc:	e3500000 	cmp	r0, #0
    a3e0:	0a000005 	beq	a3fc <__sfvwrite_r+0x64>
    a3e4:	e1d430bc 	ldrh	r3, [r4, #12]
    a3e8:	e3833040 	orr	r3, r3, #64	; 0x40
    a3ec:	e1c430bc 	strh	r3, [r4, #12]
    a3f0:	e3a03009 	mov	r3, #9
    a3f4:	e5863000 	str	r3, [r6]
    a3f8:	ea0000f9 	b	a7e4 <__sfvwrite_r+0x44c>
    a3fc:	e1d490bc 	ldrh	r9, [r4, #12]
    a400:	e2195002 	ands	r5, r9, #2
    a404:	13a05000 	movne	r5, #0
    a408:	e5987000 	ldr	r7, [r8]
    a40c:	11a0a005 	movne	sl, r5
    a410:	0a000017 	beq	a474 <__sfvwrite_r+0xdc>
    a414:	e35a0000 	cmp	sl, #0
    a418:	05975000 	ldreq	r5, [r7]
    a41c:	0597a004 	ldreq	sl, [r7, #4]
    a420:	02877008 	addeq	r7, r7, #8
    a424:	0afffffa 	beq	a414 <__sfvwrite_r+0x7c>
    a428:	e35a0c01 	cmp	sl, #256	; 0x100
    a42c:	31a0300a 	movcc	r3, sl
    a430:	23a03c01 	movcs	r3, #256	; 0x100
    a434:	e1a00006 	mov	r0, r6
    a438:	e594101c 	ldr	r1, [r4, #28]
    a43c:	e1a02005 	mov	r2, r5
    a440:	e594c024 	ldr	ip, [r4, #36]	; 0x24
    a444:	e1a0e00f 	mov	lr, pc
    a448:	e12fff1c 	bx	ip
    a44c:	e2503000 	subs	r3, r0, #0
    a450:	da0000e0 	ble	a7d8 <__sfvwrite_r+0x440>
    a454:	e5980008 	ldr	r0, [r8, #8]
    a458:	e0630000 	rsb	r0, r3, r0
    a45c:	e3500000 	cmp	r0, #0
    a460:	e5880008 	str	r0, [r8, #8]
    a464:	0a0000df 	beq	a7e8 <__sfvwrite_r+0x450>
    a468:	e0855003 	add	r5, r5, r3
    a46c:	e063a00a 	rsb	sl, r3, sl
    a470:	eaffffe7 	b	a414 <__sfvwrite_r+0x7c>
    a474:	e2199001 	ands	r9, r9, #1
    a478:	11a0c005 	movne	ip, r5
    a47c:	11a09005 	movne	r9, r5
    a480:	11a0b005 	movne	fp, r5
    a484:	01a05009 	moveq	r5, r9
    a488:	1a00007c 	bne	a680 <__sfvwrite_r+0x2e8>
    a48c:	e3550000 	cmp	r5, #0
    a490:	05979000 	ldreq	r9, [r7]
    a494:	05975004 	ldreq	r5, [r7, #4]
    a498:	02877008 	addeq	r7, r7, #8
    a49c:	0afffffa 	beq	a48c <__sfvwrite_r+0xf4>
    a4a0:	e1d430bc 	ldrh	r3, [r4, #12]
    a4a4:	e3130c02 	tst	r3, #512	; 0x200
    a4a8:	e594a008 	ldr	sl, [r4, #8]
    a4ac:	0a000041 	beq	a5b8 <__sfvwrite_r+0x220>
    a4b0:	e155000a 	cmp	r5, sl
    a4b4:	3a000032 	bcc	a584 <__sfvwrite_r+0x1ec>
    a4b8:	e3130d12 	tst	r3, #1152	; 0x480
    a4bc:	0a00002e 	beq	a57c <__sfvwrite_r+0x1e4>
    a4c0:	e5941010 	ldr	r1, [r4, #16]
    a4c4:	e594b000 	ldr	fp, [r4]
    a4c8:	e061b00b 	rsb	fp, r1, fp
    a4cc:	e58db00c 	str	fp, [sp, #12]
    a4d0:	e594b014 	ldr	fp, [r4, #20]
    a4d4:	e59d000c 	ldr	r0, [sp, #12]
    a4d8:	e08bb08b 	add	fp, fp, fp, lsl #1
    a4dc:	e08bbfab 	add	fp, fp, fp, lsr #31
    a4e0:	e2802001 	add	r2, r0, #1
    a4e4:	e1a0b0cb 	asr	fp, fp, #1
    a4e8:	e0822005 	add	r2, r2, r5
    a4ec:	e15b0002 	cmp	fp, r2
    a4f0:	31a0b002 	movcc	fp, r2
    a4f4:	e3130b01 	tst	r3, #1024	; 0x400
    a4f8:	0a00000c 	beq	a530 <__sfvwrite_r+0x198>
    a4fc:	e1a00006 	mov	r0, r6
    a500:	e1a0100b 	mov	r1, fp
    a504:	ebfff5fd 	bl	7d00 <_malloc_r>
    a508:	e250a000 	subs	sl, r0, #0
    a50c:	0a00000f 	beq	a550 <__sfvwrite_r+0x1b8>
    a510:	e5941010 	ldr	r1, [r4, #16]
    a514:	e59d200c 	ldr	r2, [sp, #12]
    a518:	ebfff781 	bl	8324 <memcpy>
    a51c:	e1d430bc 	ldrh	r3, [r4, #12]
    a520:	e3c33d12 	bic	r3, r3, #1152	; 0x480
    a524:	e3833080 	orr	r3, r3, #128	; 0x80
    a528:	e1c430bc 	strh	r3, [r4, #12]
    a52c:	ea00000a 	b	a55c <__sfvwrite_r+0x1c4>
    a530:	e1a00006 	mov	r0, r6
    a534:	e1a0200b 	mov	r2, fp
    a538:	eb0000f1 	bl	a904 <_realloc_r>
    a53c:	e250a000 	subs	sl, r0, #0
    a540:	1a000005 	bne	a55c <__sfvwrite_r+0x1c4>
    a544:	e1a00006 	mov	r0, r6
    a548:	e5941010 	ldr	r1, [r4, #16]
    a54c:	ebfff492 	bl	779c <_free_r>
    a550:	e3a0300c 	mov	r3, #12
    a554:	e5863000 	str	r3, [r6]
    a558:	ea00009e 	b	a7d8 <__sfvwrite_r+0x440>
    a55c:	e59d300c 	ldr	r3, [sp, #12]
    a560:	e584b014 	str	fp, [r4, #20]
    a564:	e063b00b 	rsb	fp, r3, fp
    a568:	e584a010 	str	sl, [r4, #16]
    a56c:	e584b008 	str	fp, [r4, #8]
    a570:	e08aa003 	add	sl, sl, r3
    a574:	e584a000 	str	sl, [r4]
    a578:	e1a0a005 	mov	sl, r5
    a57c:	e155000a 	cmp	r5, sl
    a580:	2a000000 	bcs	a588 <__sfvwrite_r+0x1f0>
    a584:	e1a0a005 	mov	sl, r5
    a588:	e1a0200a 	mov	r2, sl
    a58c:	e5940000 	ldr	r0, [r4]
    a590:	e1a01009 	mov	r1, r9
    a594:	eb0000b6 	bl	a874 <memmove>
    a598:	e5943008 	ldr	r3, [r4, #8]
    a59c:	e06a3003 	rsb	r3, sl, r3
    a5a0:	e5843008 	str	r3, [r4, #8]
    a5a4:	e5943000 	ldr	r3, [r4]
    a5a8:	e083a00a 	add	sl, r3, sl
    a5ac:	e584a000 	str	sl, [r4]
    a5b0:	e1a0a005 	mov	sl, r5
    a5b4:	ea000026 	b	a654 <__sfvwrite_r+0x2bc>
    a5b8:	e5940000 	ldr	r0, [r4]
    a5bc:	e5943010 	ldr	r3, [r4, #16]
    a5c0:	e155000a 	cmp	r5, sl
    a5c4:	81500003 	cmphi	r0, r3
    a5c8:	9a00000b 	bls	a5fc <__sfvwrite_r+0x264>
    a5cc:	e1a01009 	mov	r1, r9
    a5d0:	e1a0200a 	mov	r2, sl
    a5d4:	eb0000a6 	bl	a874 <memmove>
    a5d8:	e5943000 	ldr	r3, [r4]
    a5dc:	e083300a 	add	r3, r3, sl
    a5e0:	e5843000 	str	r3, [r4]
    a5e4:	e1a00006 	mov	r0, r6
    a5e8:	e1a01004 	mov	r1, r4
    a5ec:	ebfff2eb 	bl	71a0 <_fflush_r>
    a5f0:	e3500000 	cmp	r0, #0
    a5f4:	0a000016 	beq	a654 <__sfvwrite_r+0x2bc>
    a5f8:	ea000076 	b	a7d8 <__sfvwrite_r+0x440>
    a5fc:	e5943014 	ldr	r3, [r4, #20]
    a600:	e1550003 	cmp	r5, r3
    a604:	3a000008 	bcc	a62c <__sfvwrite_r+0x294>
    a608:	e1a00006 	mov	r0, r6
    a60c:	e594101c 	ldr	r1, [r4, #28]
    a610:	e1a02009 	mov	r2, r9
    a614:	e594c024 	ldr	ip, [r4, #36]	; 0x24
    a618:	e1a0e00f 	mov	lr, pc
    a61c:	e12fff1c 	bx	ip
    a620:	e250a000 	subs	sl, r0, #0
    a624:	ca00000a 	bgt	a654 <__sfvwrite_r+0x2bc>
    a628:	ea00006a 	b	a7d8 <__sfvwrite_r+0x440>
    a62c:	e1a01009 	mov	r1, r9
    a630:	e1a02005 	mov	r2, r5
    a634:	eb00008e 	bl	a874 <memmove>
    a638:	e5943008 	ldr	r3, [r4, #8]
    a63c:	e0653003 	rsb	r3, r5, r3
    a640:	e5843008 	str	r3, [r4, #8]
    a644:	e5943000 	ldr	r3, [r4]
    a648:	e0833005 	add	r3, r3, r5
    a64c:	e5843000 	str	r3, [r4]
    a650:	e1a0a005 	mov	sl, r5
    a654:	e5980008 	ldr	r0, [r8, #8]
    a658:	e06a0000 	rsb	r0, sl, r0
    a65c:	e3500000 	cmp	r0, #0
    a660:	e5880008 	str	r0, [r8, #8]
    a664:	0a00005f 	beq	a7e8 <__sfvwrite_r+0x450>
    a668:	e089900a 	add	r9, r9, sl
    a66c:	e06a5005 	rsb	r5, sl, r5
    a670:	eaffff85 	b	a48c <__sfvwrite_r+0xf4>
    a674:	e8970a00 	ldm	r7, {r9, fp}
    a678:	e3a0c000 	mov	ip, #0
    a67c:	e2877008 	add	r7, r7, #8
    a680:	e35b0000 	cmp	fp, #0
    a684:	0afffffa 	beq	a674 <__sfvwrite_r+0x2dc>
    a688:	e35c0000 	cmp	ip, #0
    a68c:	1a000008 	bne	a6b4 <__sfvwrite_r+0x31c>
    a690:	e1a00009 	mov	r0, r9
    a694:	e3a0100a 	mov	r1, #10
    a698:	e1a0200b 	mov	r2, fp
    a69c:	ebfff714 	bl	82f4 <memchr>
    a6a0:	e2505000 	subs	r5, r0, #0
    a6a4:	12855001 	addne	r5, r5, #1
    a6a8:	10695005 	rsbne	r5, r9, r5
    a6ac:	028b5001 	addeq	r5, fp, #1
    a6b0:	e3a0c001 	mov	ip, #1
    a6b4:	e594e014 	ldr	lr, [r4, #20]
    a6b8:	e594a008 	ldr	sl, [r4, #8]
    a6bc:	e155000b 	cmp	r5, fp
    a6c0:	31a03005 	movcc	r3, r5
    a6c4:	21a0300b 	movcs	r3, fp
    a6c8:	e08ea00a 	add	sl, lr, sl
    a6cc:	e5940000 	ldr	r0, [r4]
    a6d0:	e5941010 	ldr	r1, [r4, #16]
    a6d4:	e153000a 	cmp	r3, sl
    a6d8:	d3a02000 	movle	r2, #0
    a6dc:	c3a02001 	movgt	r2, #1
    a6e0:	e1500001 	cmp	r0, r1
    a6e4:	93a02000 	movls	r2, #0
    a6e8:	e3520000 	cmp	r2, #0
    a6ec:	0a00000d 	beq	a728 <__sfvwrite_r+0x390>
    a6f0:	e1a01009 	mov	r1, r9
    a6f4:	e1a0200a 	mov	r2, sl
    a6f8:	e58dc004 	str	ip, [sp, #4]
    a6fc:	eb00005c 	bl	a874 <memmove>
    a700:	e5943000 	ldr	r3, [r4]
    a704:	e083300a 	add	r3, r3, sl
    a708:	e5843000 	str	r3, [r4]
    a70c:	e1a00006 	mov	r0, r6
    a710:	e1a01004 	mov	r1, r4
    a714:	ebfff2a1 	bl	71a0 <_fflush_r>
    a718:	e3500000 	cmp	r0, #0
    a71c:	e59dc004 	ldr	ip, [sp, #4]
    a720:	0a00001c 	beq	a798 <__sfvwrite_r+0x400>
    a724:	ea00002b 	b	a7d8 <__sfvwrite_r+0x440>
    a728:	e153000e 	cmp	r3, lr
    a72c:	ba00000b 	blt	a760 <__sfvwrite_r+0x3c8>
    a730:	e58dc004 	str	ip, [sp, #4]
    a734:	e1a00006 	mov	r0, r6
    a738:	e594101c 	ldr	r1, [r4, #28]
    a73c:	e1a02009 	mov	r2, r9
    a740:	e1a0300e 	mov	r3, lr
    a744:	e594c024 	ldr	ip, [r4, #36]	; 0x24
    a748:	e1a0e00f 	mov	lr, pc
    a74c:	e12fff1c 	bx	ip
    a750:	e250a000 	subs	sl, r0, #0
    a754:	e59dc004 	ldr	ip, [sp, #4]
    a758:	ca00000e 	bgt	a798 <__sfvwrite_r+0x400>
    a75c:	ea00001d 	b	a7d8 <__sfvwrite_r+0x440>
    a760:	e1a02003 	mov	r2, r3
    a764:	e1a01009 	mov	r1, r9
    a768:	e58d3008 	str	r3, [sp, #8]
    a76c:	e58dc004 	str	ip, [sp, #4]
    a770:	eb00003f 	bl	a874 <memmove>
    a774:	e59d3008 	ldr	r3, [sp, #8]
    a778:	e5942008 	ldr	r2, [r4, #8]
    a77c:	e0632002 	rsb	r2, r3, r2
    a780:	e5842008 	str	r2, [r4, #8]
    a784:	e5942000 	ldr	r2, [r4]
    a788:	e0822003 	add	r2, r2, r3
    a78c:	e5842000 	str	r2, [r4]
    a790:	e59dc004 	ldr	ip, [sp, #4]
    a794:	e1a0a003 	mov	sl, r3
    a798:	e055500a 	subs	r5, r5, sl
    a79c:	1a000005 	bne	a7b8 <__sfvwrite_r+0x420>
    a7a0:	e1a00006 	mov	r0, r6
    a7a4:	e1a01004 	mov	r1, r4
    a7a8:	ebfff27c 	bl	71a0 <_fflush_r>
    a7ac:	e3500000 	cmp	r0, #0
    a7b0:	1a000008 	bne	a7d8 <__sfvwrite_r+0x440>
    a7b4:	e1a0c005 	mov	ip, r5
    a7b8:	e5980008 	ldr	r0, [r8, #8]
    a7bc:	e06a0000 	rsb	r0, sl, r0
    a7c0:	e3500000 	cmp	r0, #0
    a7c4:	e5880008 	str	r0, [r8, #8]
    a7c8:	0a000006 	beq	a7e8 <__sfvwrite_r+0x450>
    a7cc:	e089900a 	add	r9, r9, sl
    a7d0:	e06ab00b 	rsb	fp, sl, fp
    a7d4:	eaffffa9 	b	a680 <__sfvwrite_r+0x2e8>
    a7d8:	e1d430bc 	ldrh	r3, [r4, #12]
    a7dc:	e3833040 	orr	r3, r3, #64	; 0x40
    a7e0:	e1c430bc 	strh	r3, [r4, #12]
    a7e4:	e3e00000 	mvn	r0, #0
    a7e8:	e28dd014 	add	sp, sp, #20
    a7ec:	e8bd4ff0 	pop	{r4, r5, r6, r7, r8, r9, sl, fp, lr}
    a7f0:	e12fff1e 	bx	lr

0000a7f4 <_isatty_r>:
    a7f4:	e92d4038 	push	{r3, r4, r5, lr}
    a7f8:	e59f402c 	ldr	r4, [pc, #44]	; a82c <_isatty_r+0x38>
    a7fc:	e3a03000 	mov	r3, #0
    a800:	e1a05000 	mov	r5, r0
    a804:	e1a00001 	mov	r0, r1
    a808:	e5843000 	str	r3, [r4]
    a80c:	eb0002c3 	bl	b320 <_isatty>
    a810:	e3700001 	cmn	r0, #1
    a814:	1a000002 	bne	a824 <_isatty_r+0x30>
    a818:	e5943000 	ldr	r3, [r4]
    a81c:	e3530000 	cmp	r3, #0
    a820:	15853000 	strne	r3, [r5]
    a824:	e8bd4038 	pop	{r3, r4, r5, lr}
    a828:	e12fff1e 	bx	lr
    a82c:	40000928 	.word	0x40000928

0000a830 <_lseek_r>:
    a830:	e92d4038 	push	{r3, r4, r5, lr}
    a834:	e59f4034 	ldr	r4, [pc, #52]	; a870 <_lseek_r+0x40>
    a838:	e1a05000 	mov	r5, r0
    a83c:	e3a00000 	mov	r0, #0
    a840:	e5840000 	str	r0, [r4]
    a844:	e1a00001 	mov	r0, r1
    a848:	e1a01002 	mov	r1, r2
    a84c:	e1a02003 	mov	r2, r3
    a850:	eb0002ae 	bl	b310 <_lseek>
    a854:	e3700001 	cmn	r0, #1
    a858:	1a000002 	bne	a868 <_lseek_r+0x38>
    a85c:	e5943000 	ldr	r3, [r4]
    a860:	e3530000 	cmp	r3, #0
    a864:	15853000 	strne	r3, [r5]
    a868:	e8bd4038 	pop	{r3, r4, r5, lr}
    a86c:	e12fff1e 	bx	lr
    a870:	40000928 	.word	0x40000928

0000a874 <memmove>:
    a874:	e1510000 	cmp	r1, r0
    a878:	e1a0c000 	mov	ip, r0
    a87c:	2a00000c 	bcs	a8b4 <memmove+0x40>
    a880:	e0813002 	add	r3, r1, r2
    a884:	e1500003 	cmp	r0, r3
    a888:	31a01003 	movcc	r1, r3
    a88c:	30803002 	addcc	r3, r0, r2
    a890:	3a000002 	bcc	a8a0 <memmove+0x2c>
    a894:	ea000006 	b	a8b4 <memmove+0x40>
    a898:	e571c001 	ldrb	ip, [r1, #-1]!
    a89c:	e563c001 	strb	ip, [r3, #-1]!
    a8a0:	e2522001 	subs	r2, r2, #1
    a8a4:	2afffffb 	bcs	a898 <memmove+0x24>
    a8a8:	e12fff1e 	bx	lr
    a8ac:	e4d13001 	ldrb	r3, [r1], #1
    a8b0:	e4cc3001 	strb	r3, [ip], #1
    a8b4:	e2522001 	subs	r2, r2, #1
    a8b8:	2afffffb 	bcs	a8ac <memmove+0x38>
    a8bc:	e12fff1e 	bx	lr

0000a8c0 <_read_r>:
    a8c0:	e92d4038 	push	{r3, r4, r5, lr}
    a8c4:	e59f4034 	ldr	r4, [pc, #52]	; a900 <_read_r+0x40>
    a8c8:	e1a05000 	mov	r5, r0
    a8cc:	e3a00000 	mov	r0, #0
    a8d0:	e5840000 	str	r0, [r4]
    a8d4:	e1a00001 	mov	r0, r1
    a8d8:	e1a01002 	mov	r1, r2
    a8dc:	e1a02003 	mov	r2, r3
    a8e0:	eb000265 	bl	b27c <_read>
    a8e4:	e3700001 	cmn	r0, #1
    a8e8:	1a000002 	bne	a8f8 <_read_r+0x38>
    a8ec:	e5943000 	ldr	r3, [r4]
    a8f0:	e3530000 	cmp	r3, #0
    a8f4:	15853000 	strne	r3, [r5]
    a8f8:	e8bd4038 	pop	{r3, r4, r5, lr}
    a8fc:	e12fff1e 	bx	lr
    a900:	40000928 	.word	0x40000928

0000a904 <_realloc_r>:
    a904:	e92d4ff7 	push	{r0, r1, r2, r4, r5, r6, r7, r8, r9, sl, fp, lr}
    a908:	e2516000 	subs	r6, r1, #0
    a90c:	e1a0a000 	mov	sl, r0
    a910:	e1a07002 	mov	r7, r2
    a914:	1a000003 	bne	a928 <_realloc_r+0x24>
    a918:	e1a01002 	mov	r1, r2
    a91c:	ebfff4f7 	bl	7d00 <_malloc_r>
    a920:	e1a07000 	mov	r7, r0
    a924:	ea000119 	b	ad90 <_realloc_r+0x48c>
    a928:	ebfff68c 	bl	8360 <__malloc_lock>
    a92c:	e287500b 	add	r5, r7, #11
    a930:	e3550016 	cmp	r5, #22
    a934:	83c55007 	bichi	r5, r5, #7
    a938:	93a05010 	movls	r5, #16
    a93c:	e1550007 	cmp	r5, r7
    a940:	23a08000 	movcs	r8, #0
    a944:	33a08001 	movcc	r8, #1
    a948:	e1988fa5 	orrs	r8, r8, r5, lsr #31
    a94c:	13a0300c 	movne	r3, #12
    a950:	e5162004 	ldr	r2, [r6, #-4]
    a954:	e246b008 	sub	fp, r6, #8
    a958:	158a3000 	strne	r3, [sl]
    a95c:	13a07000 	movne	r7, #0
    a960:	1a00010a 	bne	ad90 <_realloc_r+0x48c>
    a964:	e3c29003 	bic	r9, r2, #3
    a968:	e1590005 	cmp	r9, r5
    a96c:	a1a08009 	movge	r8, r9
    a970:	aa0000e9 	bge	ad1c <_realloc_r+0x418>
    a974:	e59f3420 	ldr	r3, [pc, #1056]	; ad9c <_realloc_r+0x498>
    a978:	e593c008 	ldr	ip, [r3, #8]
    a97c:	e08b1009 	add	r1, fp, r9
    a980:	e151000c 	cmp	r1, ip
    a984:	0a000007 	beq	a9a8 <_realloc_r+0xa4>
    a988:	e5910004 	ldr	r0, [r1, #4]
    a98c:	e3c00001 	bic	r0, r0, #1
    a990:	e0810000 	add	r0, r1, r0
    a994:	e5900004 	ldr	r0, [r0, #4]
    a998:	e3100001 	tst	r0, #1
    a99c:	11a00008 	movne	r0, r8
    a9a0:	11a01008 	movne	r1, r8
    a9a4:	1a00001a 	bne	aa14 <_realloc_r+0x110>
    a9a8:	e5910004 	ldr	r0, [r1, #4]
    a9ac:	e151000c 	cmp	r1, ip
    a9b0:	e3c00003 	bic	r0, r0, #3
    a9b4:	e0808009 	add	r8, r0, r9
    a9b8:	1a00000f 	bne	a9fc <_realloc_r+0xf8>
    a9bc:	e285e010 	add	lr, r5, #16
    a9c0:	e158000e 	cmp	r8, lr
    a9c4:	ba000012 	blt	aa14 <_realloc_r+0x110>
    a9c8:	e0658008 	rsb	r8, r5, r8
    a9cc:	e08bb005 	add	fp, fp, r5
    a9d0:	e3888001 	orr	r8, r8, #1
    a9d4:	e58b8004 	str	r8, [fp, #4]
    a9d8:	e583b008 	str	fp, [r3, #8]
    a9dc:	e5163004 	ldr	r3, [r6, #-4]
    a9e0:	e2033001 	and	r3, r3, #1
    a9e4:	e1855003 	orr	r5, r5, r3
    a9e8:	e5065004 	str	r5, [r6, #-4]
    a9ec:	e1a0000a 	mov	r0, sl
    a9f0:	ebfff65b 	bl	8364 <__malloc_unlock>
    a9f4:	e1a07006 	mov	r7, r6
    a9f8:	ea0000e4 	b	ad90 <_realloc_r+0x48c>
    a9fc:	e1580005 	cmp	r8, r5
    aa00:	a2812008 	addge	r2, r1, #8
    aa04:	a892000c 	ldmge	r2, {r2, r3}
    aa08:	a582300c 	strge	r3, [r2, #12]
    aa0c:	a5832008 	strge	r2, [r3, #8]
    aa10:	aa0000c1 	bge	ad1c <_realloc_r+0x418>
    aa14:	e3120001 	tst	r2, #1
    aa18:	1a00007f 	bne	ac1c <_realloc_r+0x318>
    aa1c:	e5164008 	ldr	r4, [r6, #-8]
    aa20:	e064400b 	rsb	r4, r4, fp
    aa24:	e5942004 	ldr	r2, [r4, #4]
    aa28:	e3510000 	cmp	r1, #0
    aa2c:	e3c22003 	bic	r2, r2, #3
    aa30:	0a000048 	beq	ab58 <_realloc_r+0x254>
    aa34:	e151000c 	cmp	r1, ip
    aa38:	e0828009 	add	r8, r2, r9
    aa3c:	1a00003e 	bne	ab3c <_realloc_r+0x238>
    aa40:	e0888000 	add	r8, r8, r0
    aa44:	e2851010 	add	r1, r5, #16
    aa48:	e1580001 	cmp	r8, r1
    aa4c:	ba000041 	blt	ab58 <_realloc_r+0x254>
    aa50:	e1a07004 	mov	r7, r4
    aa54:	e594200c 	ldr	r2, [r4, #12]
    aa58:	e5b71008 	ldr	r1, [r7, #8]!
    aa5c:	e581200c 	str	r2, [r1, #12]
    aa60:	e5821008 	str	r1, [r2, #8]
    aa64:	e2492004 	sub	r2, r9, #4
    aa68:	e3520024 	cmp	r2, #36	; 0x24
    aa6c:	8a000023 	bhi	ab00 <_realloc_r+0x1fc>
    aa70:	e3520013 	cmp	r2, #19
    aa74:	e1a01007 	mov	r1, r7
    aa78:	9a000017 	bls	aadc <_realloc_r+0x1d8>
    aa7c:	e1a00006 	mov	r0, r6
    aa80:	e4901004 	ldr	r1, [r0], #4
    aa84:	e5841008 	str	r1, [r4, #8]
    aa88:	e5961004 	ldr	r1, [r6, #4]
    aa8c:	e352001b 	cmp	r2, #27
    aa90:	e584100c 	str	r1, [r4, #12]
    aa94:	e2806004 	add	r6, r0, #4
    aa98:	e2841010 	add	r1, r4, #16
    aa9c:	9a00000e 	bls	aadc <_realloc_r+0x1d8>
    aaa0:	e5901004 	ldr	r1, [r0, #4]
    aaa4:	e5841010 	str	r1, [r4, #16]
    aaa8:	e5961004 	ldr	r1, [r6, #4]
    aaac:	e3520024 	cmp	r2, #36	; 0x24
    aab0:	e2860004 	add	r0, r6, #4
    aab4:	e5841014 	str	r1, [r4, #20]
    aab8:	e2866008 	add	r6, r6, #8
    aabc:	e2841018 	add	r1, r4, #24
    aac0:	1a000005 	bne	aadc <_realloc_r+0x1d8>
    aac4:	e5902004 	ldr	r2, [r0, #4]
    aac8:	e5842018 	str	r2, [r4, #24]
    aacc:	e5962004 	ldr	r2, [r6, #4]
    aad0:	e584201c 	str	r2, [r4, #28]
    aad4:	e2841020 	add	r1, r4, #32
    aad8:	e2866008 	add	r6, r6, #8
    aadc:	e1a00006 	mov	r0, r6
    aae0:	e490c004 	ldr	ip, [r0], #4
    aae4:	e1a02001 	mov	r2, r1
    aae8:	e482c004 	str	ip, [r2], #4
    aaec:	e596c004 	ldr	ip, [r6, #4]
    aaf0:	e581c004 	str	ip, [r1, #4]
    aaf4:	e5901004 	ldr	r1, [r0, #4]
    aaf8:	e5821004 	str	r1, [r2, #4]
    aafc:	ea000004 	b	ab14 <_realloc_r+0x210>
    ab00:	e1a00007 	mov	r0, r7
    ab04:	e1a01006 	mov	r1, r6
    ab08:	e58d3004 	str	r3, [sp, #4]
    ab0c:	ebffff58 	bl	a874 <memmove>
    ab10:	e59d3004 	ldr	r3, [sp, #4]
    ab14:	e0658008 	rsb	r8, r5, r8
    ab18:	e0842005 	add	r2, r4, r5
    ab1c:	e3888001 	orr	r8, r8, #1
    ab20:	e5828004 	str	r8, [r2, #4]
    ab24:	e5832008 	str	r2, [r3, #8]
    ab28:	e5943004 	ldr	r3, [r4, #4]
    ab2c:	e2033001 	and	r3, r3, #1
    ab30:	e1855003 	orr	r5, r5, r3
    ab34:	e5845004 	str	r5, [r4, #4]
    ab38:	ea000074 	b	ad10 <_realloc_r+0x40c>
    ab3c:	e0888000 	add	r8, r8, r0
    ab40:	e1580005 	cmp	r8, r5
    ab44:	a2812008 	addge	r2, r1, #8
    ab48:	a892000c 	ldmge	r2, {r2, r3}
    ab4c:	a582300c 	strge	r3, [r2, #12]
    ab50:	a5832008 	strge	r2, [r3, #8]
    ab54:	aa000002 	bge	ab64 <_realloc_r+0x260>
    ab58:	e0828009 	add	r8, r2, r9
    ab5c:	e1580005 	cmp	r8, r5
    ab60:	ba00002d 	blt	ac1c <_realloc_r+0x318>
    ab64:	e1a00004 	mov	r0, r4
    ab68:	e5b02008 	ldr	r2, [r0, #8]!
    ab6c:	e594300c 	ldr	r3, [r4, #12]
    ab70:	e582300c 	str	r3, [r2, #12]
    ab74:	e5832008 	str	r2, [r3, #8]
    ab78:	e2492004 	sub	r2, r9, #4
    ab7c:	e3520024 	cmp	r2, #36	; 0x24
    ab80:	8a000022 	bhi	ac10 <_realloc_r+0x30c>
    ab84:	e3520013 	cmp	r2, #19
    ab88:	9a000017 	bls	abec <_realloc_r+0x2e8>
    ab8c:	e1a03006 	mov	r3, r6
    ab90:	e4931004 	ldr	r1, [r3], #4
    ab94:	e5841008 	str	r1, [r4, #8]
    ab98:	e5961004 	ldr	r1, [r6, #4]
    ab9c:	e352001b 	cmp	r2, #27
    aba0:	e584100c 	str	r1, [r4, #12]
    aba4:	e2840010 	add	r0, r4, #16
    aba8:	e2836004 	add	r6, r3, #4
    abac:	9a00000e 	bls	abec <_realloc_r+0x2e8>
    abb0:	e5933004 	ldr	r3, [r3, #4]
    abb4:	e5843010 	str	r3, [r4, #16]
    abb8:	e5961004 	ldr	r1, [r6, #4]
    abbc:	e3520024 	cmp	r2, #36	; 0x24
    abc0:	e2863004 	add	r3, r6, #4
    abc4:	e5841014 	str	r1, [r4, #20]
    abc8:	e2840018 	add	r0, r4, #24
    abcc:	e2866008 	add	r6, r6, #8
    abd0:	1a000005 	bne	abec <_realloc_r+0x2e8>
    abd4:	e5933004 	ldr	r3, [r3, #4]
    abd8:	e5843018 	str	r3, [r4, #24]
    abdc:	e5963004 	ldr	r3, [r6, #4]
    abe0:	e584301c 	str	r3, [r4, #28]
    abe4:	e2840020 	add	r0, r4, #32
    abe8:	e2866008 	add	r6, r6, #8
    abec:	e1a02006 	mov	r2, r6
    abf0:	e4921004 	ldr	r1, [r2], #4
    abf4:	e1a03000 	mov	r3, r0
    abf8:	e4831004 	str	r1, [r3], #4
    abfc:	e5961004 	ldr	r1, [r6, #4]
    ac00:	e5801004 	str	r1, [r0, #4]
    ac04:	e5922004 	ldr	r2, [r2, #4]
    ac08:	e5832004 	str	r2, [r3, #4]
    ac0c:	ea000043 	b	ad20 <_realloc_r+0x41c>
    ac10:	e1a01006 	mov	r1, r6
    ac14:	ebffff16 	bl	a874 <memmove>
    ac18:	ea000040 	b	ad20 <_realloc_r+0x41c>
    ac1c:	e1a01007 	mov	r1, r7
    ac20:	e1a0000a 	mov	r0, sl
    ac24:	ebfff435 	bl	7d00 <_malloc_r>
    ac28:	e2507000 	subs	r7, r0, #0
    ac2c:	0a000037 	beq	ad10 <_realloc_r+0x40c>
    ac30:	e5163004 	ldr	r3, [r6, #-4]
    ac34:	e3c33001 	bic	r3, r3, #1
    ac38:	e2472008 	sub	r2, r7, #8
    ac3c:	e08b3003 	add	r3, fp, r3
    ac40:	e1520003 	cmp	r2, r3
    ac44:	05178004 	ldreq	r8, [r7, #-4]
    ac48:	03c88003 	biceq	r8, r8, #3
    ac4c:	00888009 	addeq	r8, r8, r9
    ac50:	0a000031 	beq	ad1c <_realloc_r+0x418>
    ac54:	e2492004 	sub	r2, r9, #4
    ac58:	e3520024 	cmp	r2, #36	; 0x24
    ac5c:	8a000026 	bhi	acfc <_realloc_r+0x3f8>
    ac60:	e3520013 	cmp	r2, #19
    ac64:	e1a01006 	mov	r1, r6
    ac68:	e1a03007 	mov	r3, r7
    ac6c:	9a000019 	bls	acd8 <_realloc_r+0x3d4>
    ac70:	e1a0c006 	mov	ip, r6
    ac74:	e49c3004 	ldr	r3, [ip], #4
    ac78:	e1a00007 	mov	r0, r7
    ac7c:	e4803004 	str	r3, [r0], #4
    ac80:	e5963004 	ldr	r3, [r6, #4]
    ac84:	e352001b 	cmp	r2, #27
    ac88:	e5873004 	str	r3, [r7, #4]
    ac8c:	e28c1004 	add	r1, ip, #4
    ac90:	e2803004 	add	r3, r0, #4
    ac94:	9a00000f 	bls	acd8 <_realloc_r+0x3d4>
    ac98:	e59cc004 	ldr	ip, [ip, #4]
    ac9c:	e580c004 	str	ip, [r0, #4]
    aca0:	e281c004 	add	ip, r1, #4
    aca4:	e5911004 	ldr	r1, [r1, #4]
    aca8:	e3520024 	cmp	r2, #36	; 0x24
    acac:	e5831004 	str	r1, [r3, #4]
    acb0:	e2830004 	add	r0, r3, #4
    acb4:	e28c1004 	add	r1, ip, #4
    acb8:	e2833008 	add	r3, r3, #8
    acbc:	1a000005 	bne	acd8 <_realloc_r+0x3d4>
    acc0:	e59c2004 	ldr	r2, [ip, #4]
    acc4:	e5802004 	str	r2, [r0, #4]
    acc8:	e5912004 	ldr	r2, [r1, #4]
    accc:	e2811008 	add	r1, r1, #8
    acd0:	e5832004 	str	r2, [r3, #4]
    acd4:	e2833008 	add	r3, r3, #8
    acd8:	e1a00001 	mov	r0, r1
    acdc:	e490c004 	ldr	ip, [r0], #4
    ace0:	e1a02003 	mov	r2, r3
    ace4:	e482c004 	str	ip, [r2], #4
    ace8:	e5911004 	ldr	r1, [r1, #4]
    acec:	e5831004 	str	r1, [r3, #4]
    acf0:	e5903004 	ldr	r3, [r0, #4]
    acf4:	e5823004 	str	r3, [r2, #4]
    acf8:	ea000001 	b	ad04 <_realloc_r+0x400>
    acfc:	e1a01006 	mov	r1, r6
    ad00:	ebfffedb 	bl	a874 <memmove>
    ad04:	e1a0000a 	mov	r0, sl
    ad08:	e1a01006 	mov	r1, r6
    ad0c:	ebfff2a2 	bl	779c <_free_r>
    ad10:	e1a0000a 	mov	r0, sl
    ad14:	ebfff592 	bl	8364 <__malloc_unlock>
    ad18:	ea00001c 	b	ad90 <_realloc_r+0x48c>
    ad1c:	e1a0400b 	mov	r4, fp
    ad20:	e0653008 	rsb	r3, r5, r8
    ad24:	e353000f 	cmp	r3, #15
    ad28:	e5942004 	ldr	r2, [r4, #4]
    ad2c:	9a00000d 	bls	ad68 <_realloc_r+0x464>
    ad30:	e2022001 	and	r2, r2, #1
    ad34:	e0841005 	add	r1, r4, r5
    ad38:	e1855002 	orr	r5, r5, r2
    ad3c:	e3832001 	orr	r2, r3, #1
    ad40:	e5845004 	str	r5, [r4, #4]
    ad44:	e5812004 	str	r2, [r1, #4]
    ad48:	e0813003 	add	r3, r1, r3
    ad4c:	e5932004 	ldr	r2, [r3, #4]
    ad50:	e3822001 	orr	r2, r2, #1
    ad54:	e5832004 	str	r2, [r3, #4]
    ad58:	e1a0000a 	mov	r0, sl
    ad5c:	e2811008 	add	r1, r1, #8
    ad60:	ebfff28d 	bl	779c <_free_r>
    ad64:	ea000006 	b	ad84 <_realloc_r+0x480>
    ad68:	e2022001 	and	r2, r2, #1
    ad6c:	e1882002 	orr	r2, r8, r2
    ad70:	e5842004 	str	r2, [r4, #4]
    ad74:	e0848008 	add	r8, r4, r8
    ad78:	e5983004 	ldr	r3, [r8, #4]
    ad7c:	e3833001 	orr	r3, r3, #1
    ad80:	e5883004 	str	r3, [r8, #4]
    ad84:	e1a0000a 	mov	r0, sl
    ad88:	ebfff575 	bl	8364 <__malloc_unlock>
    ad8c:	e2847008 	add	r7, r4, #8
    ad90:	e1a00007 	mov	r0, r7
    ad94:	e8bd4ffe 	pop	{r1, r2, r3, r4, r5, r6, r7, r8, r9, sl, fp, lr}
    ad98:	e12fff1e 	bx	lr
    ad9c:	400004a8 	.word	0x400004a8

0000ada0 <cleanup_glue>:
    ada0:	e92d4038 	push	{r3, r4, r5, lr}
    ada4:	e1a04001 	mov	r4, r1
    ada8:	e5911000 	ldr	r1, [r1]
    adac:	e3510000 	cmp	r1, #0
    adb0:	e1a05000 	mov	r5, r0
    adb4:	1bfffff9 	blne	ada0 <cleanup_glue>
    adb8:	e1a00005 	mov	r0, r5
    adbc:	e1a01004 	mov	r1, r4
    adc0:	ebfff275 	bl	779c <_free_r>
    adc4:	e8bd4038 	pop	{r3, r4, r5, lr}
    adc8:	e12fff1e 	bx	lr

0000adcc <_reclaim_reent>:
    adcc:	e59f30ec 	ldr	r3, [pc, #236]	; aec0 <_reclaim_reent+0xf4>
    add0:	e5933000 	ldr	r3, [r3]
    add4:	e1500003 	cmp	r0, r3
    add8:	e92d4070 	push	{r4, r5, r6, lr}
    addc:	e1a04000 	mov	r4, r0
    ade0:	0a000034 	beq	aeb8 <_reclaim_reent+0xec>
    ade4:	e590304c 	ldr	r3, [r0, #76]	; 0x4c
    ade8:	e3530000 	cmp	r3, #0
    adec:	0a00000f 	beq	ae30 <_reclaim_reent+0x64>
    adf0:	e3a05000 	mov	r5, #0
    adf4:	e594304c 	ldr	r3, [r4, #76]	; 0x4c
    adf8:	e7931005 	ldr	r1, [r3, r5]
    adfc:	ea000003 	b	ae10 <_reclaim_reent+0x44>
    ae00:	e5916000 	ldr	r6, [r1]
    ae04:	e1a00004 	mov	r0, r4
    ae08:	ebfff263 	bl	779c <_free_r>
    ae0c:	e1a01006 	mov	r1, r6
    ae10:	e3510000 	cmp	r1, #0
    ae14:	1afffff9 	bne	ae00 <_reclaim_reent+0x34>
    ae18:	e2855004 	add	r5, r5, #4
    ae1c:	e3550080 	cmp	r5, #128	; 0x80
    ae20:	1afffff3 	bne	adf4 <_reclaim_reent+0x28>
    ae24:	e1a00004 	mov	r0, r4
    ae28:	e594104c 	ldr	r1, [r4, #76]	; 0x4c
    ae2c:	ebfff25a 	bl	779c <_free_r>
    ae30:	e5941040 	ldr	r1, [r4, #64]	; 0x40
    ae34:	e3510000 	cmp	r1, #0
    ae38:	11a00004 	movne	r0, r4
    ae3c:	1bfff256 	blne	779c <_free_r>
    ae40:	e5941148 	ldr	r1, [r4, #328]	; 0x148
    ae44:	e3510000 	cmp	r1, #0
    ae48:	0a000009 	beq	ae74 <_reclaim_reent+0xa8>
    ae4c:	e2845f53 	add	r5, r4, #332	; 0x14c
    ae50:	e1510005 	cmp	r1, r5
    ae54:	1a000001 	bne	ae60 <_reclaim_reent+0x94>
    ae58:	ea000005 	b	ae74 <_reclaim_reent+0xa8>
    ae5c:	e1a01006 	mov	r1, r6
    ae60:	e5916000 	ldr	r6, [r1]
    ae64:	e1a00004 	mov	r0, r4
    ae68:	ebfff24b 	bl	779c <_free_r>
    ae6c:	e1560005 	cmp	r6, r5
    ae70:	1afffff9 	bne	ae5c <_reclaim_reent+0x90>
    ae74:	e5941054 	ldr	r1, [r4, #84]	; 0x54
    ae78:	e3510000 	cmp	r1, #0
    ae7c:	11a00004 	movne	r0, r4
    ae80:	1bfff245 	blne	779c <_free_r>
    ae84:	e5943038 	ldr	r3, [r4, #56]	; 0x38
    ae88:	e3530000 	cmp	r3, #0
    ae8c:	0a000009 	beq	aeb8 <_reclaim_reent+0xec>
    ae90:	e1a00004 	mov	r0, r4
    ae94:	e594c03c 	ldr	ip, [r4, #60]	; 0x3c
    ae98:	e1a0e00f 	mov	lr, pc
    ae9c:	e12fff1c 	bx	ip
    aea0:	e59412e0 	ldr	r1, [r4, #736]	; 0x2e0
    aea4:	e3510000 	cmp	r1, #0
    aea8:	0a000002 	beq	aeb8 <_reclaim_reent+0xec>
    aeac:	e1a00004 	mov	r0, r4
    aeb0:	e8bd4070 	pop	{r4, r5, r6, lr}
    aeb4:	eaffffb9 	b	ada0 <cleanup_glue>
    aeb8:	e8bd4070 	pop	{r4, r5, r6, lr}
    aebc:	e12fff1e 	bx	lr
    aec0:	40000428 	.word	0x40000428

0000aec4 <_wrapup_reent>:
    aec4:	e92d40f8 	push	{r3, r4, r5, r6, r7, lr}
    aec8:	e2505000 	subs	r5, r0, #0
    aecc:	059f3054 	ldreq	r3, [pc, #84]	; af28 <_wrapup_reent+0x64>
    aed0:	05935000 	ldreq	r5, [r3]
    aed4:	e5954148 	ldr	r4, [r5, #328]	; 0x148
    aed8:	ea000009 	b	af04 <_wrapup_reent+0x40>
    aedc:	e5946004 	ldr	r6, [r4, #4]
    aee0:	e2867002 	add	r7, r6, #2
    aee4:	e0847107 	add	r7, r4, r7, lsl #2
    aee8:	ea000002 	b	aef8 <_wrapup_reent+0x34>
    aeec:	e5373004 	ldr	r3, [r7, #-4]!
    aef0:	e1a0e00f 	mov	lr, pc
    aef4:	e12fff13 	bx	r3
    aef8:	e2566001 	subs	r6, r6, #1
    aefc:	5afffffa 	bpl	aeec <_wrapup_reent+0x28>
    af00:	e5944000 	ldr	r4, [r4]
    af04:	e3540000 	cmp	r4, #0
    af08:	1afffff3 	bne	aedc <_wrapup_reent+0x18>
    af0c:	e595303c 	ldr	r3, [r5, #60]	; 0x3c
    af10:	e3530000 	cmp	r3, #0
    af14:	11a00005 	movne	r0, r5
    af18:	11a0e00f 	movne	lr, pc
    af1c:	112fff13 	bxne	r3
    af20:	e8bd40f8 	pop	{r3, r4, r5, r6, r7, lr}
    af24:	e12fff1e 	bx	lr
    af28:	40000428 	.word	0x40000428

0000af2c <__swbuf_r>:
    af2c:	e92d4070 	push	{r4, r5, r6, lr}
    af30:	e2506000 	subs	r6, r0, #0
    af34:	e1a04001 	mov	r4, r1
    af38:	e1a05002 	mov	r5, r2
    af3c:	0a000002 	beq	af4c <__swbuf_r+0x20>
    af40:	e5963038 	ldr	r3, [r6, #56]	; 0x38
    af44:	e3530000 	cmp	r3, #0
    af48:	0bfff16b 	bleq	74fc <__sinit>
    af4c:	e5953018 	ldr	r3, [r5, #24]
    af50:	e5853008 	str	r3, [r5, #8]
    af54:	e1d530bc 	ldrh	r3, [r5, #12]
    af58:	e3130008 	tst	r3, #8
    af5c:	0a000002 	beq	af6c <__swbuf_r+0x40>
    af60:	e5953010 	ldr	r3, [r5, #16]
    af64:	e3530000 	cmp	r3, #0
    af68:	1a00000a 	bne	af98 <__swbuf_r+0x6c>
    af6c:	e1a00006 	mov	r0, r6
    af70:	e1a01005 	mov	r1, r5
    af74:	ebffeb1c 	bl	5bec <__swsetup_r>
    af78:	e3500000 	cmp	r0, #0
    af7c:	0a000005 	beq	af98 <__swbuf_r+0x6c>
    af80:	e1d530bc 	ldrh	r3, [r5, #12]
    af84:	e3833040 	orr	r3, r3, #64	; 0x40
    af88:	e1c530bc 	strh	r3, [r5, #12]
    af8c:	e3a03009 	mov	r3, #9
    af90:	e5863000 	str	r3, [r6]
    af94:	ea000028 	b	b03c <__swbuf_r+0x110>
    af98:	e1d530bc 	ldrh	r3, [r5, #12]
    af9c:	e3130a02 	tst	r3, #8192	; 0x2000
    afa0:	03833a02 	orreq	r3, r3, #8192	; 0x2000
    afa4:	01c530bc 	strheq	r3, [r5, #12]
    afa8:	05953064 	ldreq	r3, [r5, #100]	; 0x64
    afac:	03c33a02 	biceq	r3, r3, #8192	; 0x2000
    afb0:	05853064 	streq	r3, [r5, #100]	; 0x64
    afb4:	e5950000 	ldr	r0, [r5]
    afb8:	e5953010 	ldr	r3, [r5, #16]
    afbc:	e0630000 	rsb	r0, r3, r0
    afc0:	e5953014 	ldr	r3, [r5, #20]
    afc4:	e1500003 	cmp	r0, r3
    afc8:	ba000004 	blt	afe0 <__swbuf_r+0xb4>
    afcc:	e1a00006 	mov	r0, r6
    afd0:	e1a01005 	mov	r1, r5
    afd4:	ebfff071 	bl	71a0 <_fflush_r>
    afd8:	e3500000 	cmp	r0, #0
    afdc:	1a000016 	bne	b03c <__swbuf_r+0x110>
    afe0:	e5953008 	ldr	r3, [r5, #8]
    afe4:	e2433001 	sub	r3, r3, #1
    afe8:	e5853008 	str	r3, [r5, #8]
    afec:	e5953000 	ldr	r3, [r5]
    aff0:	e20440ff 	and	r4, r4, #255	; 0xff
    aff4:	e4c34001 	strb	r4, [r3], #1
    aff8:	e5853000 	str	r3, [r5]
    affc:	e5953014 	ldr	r3, [r5, #20]
    b000:	e2800001 	add	r0, r0, #1
    b004:	e1500003 	cmp	r0, r3
    b008:	0a000005 	beq	b024 <__swbuf_r+0xf8>
    b00c:	e1d530bc 	ldrh	r3, [r5, #12]
    b010:	e354000a 	cmp	r4, #10
    b014:	13a03000 	movne	r3, #0
    b018:	02033001 	andeq	r3, r3, #1
    b01c:	e3530000 	cmp	r3, #0
    b020:	0a000006 	beq	b040 <__swbuf_r+0x114>
    b024:	e1a00006 	mov	r0, r6
    b028:	e1a01005 	mov	r1, r5
    b02c:	ebfff05b 	bl	71a0 <_fflush_r>
    b030:	e3500000 	cmp	r0, #0
    b034:	13e04000 	mvnne	r4, #0
    b038:	ea000000 	b	b040 <__swbuf_r+0x114>
    b03c:	e3e04000 	mvn	r4, #0
    b040:	e1a00004 	mov	r0, r4
    b044:	e8bd4070 	pop	{r4, r5, r6, lr}
    b048:	e12fff1e 	bx	lr

0000b04c <__swbuf>:
    b04c:	e1a02001 	mov	r2, r1
    b050:	e59f100c 	ldr	r1, [pc, #12]	; b064 <__swbuf+0x18>
    b054:	e1a03000 	mov	r3, r0
    b058:	e5910000 	ldr	r0, [r1]
    b05c:	e1a01003 	mov	r1, r3
    b060:	eaffffb1 	b	af2c <__swbuf_r>
    b064:	40000428 	.word	0x40000428

0000b068 <_wcrtomb_r>:
    b068:	e92d41f0 	push	{r4, r5, r6, r7, r8, lr}
    b06c:	e2518000 	subs	r8, r1, #0
    b070:	e1a05003 	mov	r5, r3
    b074:	e24dd018 	sub	sp, sp, #24
    b078:	e1a04000 	mov	r4, r0
    b07c:	e1a07002 	mov	r7, r2
    b080:	e59f3064 	ldr	r3, [pc, #100]	; b0ec <_wcrtomb_r+0x84>
    b084:	1a000007 	bne	b0a8 <_wcrtomb_r+0x40>
    b088:	e5936000 	ldr	r6, [r3]
    b08c:	ebfff2ac 	bl	7b44 <__locale_charset>
    b090:	e58d5000 	str	r5, [sp]
    b094:	e1a03000 	mov	r3, r0
    b098:	e28d100c 	add	r1, sp, #12
    b09c:	e1a00004 	mov	r0, r4
    b0a0:	e1a02008 	mov	r2, r8
    b0a4:	ea000006 	b	b0c4 <_wcrtomb_r+0x5c>
    b0a8:	e5936000 	ldr	r6, [r3]
    b0ac:	ebfff2a4 	bl	7b44 <__locale_charset>
    b0b0:	e58d5000 	str	r5, [sp]
    b0b4:	e1a03000 	mov	r3, r0
    b0b8:	e1a01008 	mov	r1, r8
    b0bc:	e1a00004 	mov	r0, r4
    b0c0:	e1a02007 	mov	r2, r7
    b0c4:	e1a0e00f 	mov	lr, pc
    b0c8:	e12fff16 	bx	r6
    b0cc:	e3700001 	cmn	r0, #1
    b0d0:	03a03000 	moveq	r3, #0
    b0d4:	05853000 	streq	r3, [r5]
    b0d8:	0283308a 	addeq	r3, r3, #138	; 0x8a
    b0dc:	05843000 	streq	r3, [r4]
    b0e0:	e28dd018 	add	sp, sp, #24
    b0e4:	e8bd41f0 	pop	{r4, r5, r6, r7, r8, lr}
    b0e8:	e12fff1e 	bx	lr
    b0ec:	400008b8 	.word	0x400008b8

0000b0f0 <wcrtomb>:
    b0f0:	e52d4004 	push	{r4}		; (str r4, [sp, #-4]!)
    b0f4:	e1a03002 	mov	r3, r2
    b0f8:	e59f2018 	ldr	r2, [pc, #24]	; b118 <wcrtomb+0x28>
    b0fc:	e1a04000 	mov	r4, r0
    b100:	e1a0c001 	mov	ip, r1
    b104:	e5920000 	ldr	r0, [r2]
    b108:	e1a01004 	mov	r1, r4
    b10c:	e1a0200c 	mov	r2, ip
    b110:	e49d4004 	pop	{r4}		; (ldr r4, [sp], #4)
    b114:	eaffffd3 	b	b068 <_wcrtomb_r>
    b118:	40000428 	.word	0x40000428

0000b11c <__ascii_wctomb>:
    b11c:	e3510000 	cmp	r1, #0
    b120:	0a000006 	beq	b140 <__ascii_wctomb+0x24>
    b124:	e35200ff 	cmp	r2, #255	; 0xff
    b128:	83a0308a 	movhi	r3, #138	; 0x8a
    b12c:	85803000 	strhi	r3, [r0]
    b130:	95c12000 	strbls	r2, [r1]
    b134:	83e00000 	mvnhi	r0, #0
    b138:	93a00001 	movls	r0, #1
    b13c:	e12fff1e 	bx	lr
    b140:	e1a00001 	mov	r0, r1
    b144:	e12fff1e 	bx	lr

0000b148 <_wctomb_r>:
    b148:	e92d41f3 	push	{r0, r1, r4, r5, r6, r7, r8, lr}
    b14c:	e1a08003 	mov	r8, r3
    b150:	e59f3034 	ldr	r3, [pc, #52]	; b18c <_wctomb_r+0x44>
    b154:	e1a05000 	mov	r5, r0
    b158:	e1a07001 	mov	r7, r1
    b15c:	e1a06002 	mov	r6, r2
    b160:	e5934000 	ldr	r4, [r3]
    b164:	ebfff276 	bl	7b44 <__locale_charset>
    b168:	e58d8000 	str	r8, [sp]
    b16c:	e1a03000 	mov	r3, r0
    b170:	e1a01007 	mov	r1, r7
    b174:	e1a00005 	mov	r0, r5
    b178:	e1a02006 	mov	r2, r6
    b17c:	e1a0e00f 	mov	lr, pc
    b180:	e12fff14 	bx	r4
    b184:	e8bd41fc 	pop	{r2, r3, r4, r5, r6, r7, r8, lr}
    b188:	e12fff1e 	bx	lr
    b18c:	400008b8 	.word	0x400008b8

0000b190 <_write>:
    b190:	e92d4ff0 	push	{r4, r5, r6, r7, r8, r9, sl, fp, lr}
    b194:	e2525000 	subs	r5, r2, #0
    b198:	e24dd00c 	sub	sp, sp, #12
    b19c:	e1a07000 	mov	r7, r0
    b1a0:	e1a08001 	mov	r8, r1
    b1a4:	da00002f 	ble	b268 <_write+0xd8>
    b1a8:	e3a06000 	mov	r6, #0
    b1ac:	e59fa0bc 	ldr	sl, [pc, #188]	; b270 <_write+0xe0>
    b1b0:	e59f90bc 	ldr	r9, [pc, #188]	; b274 <_write+0xe4>
    b1b4:	e59fb0bc 	ldr	fp, [pc, #188]	; b278 <_write+0xe8>
    b1b8:	e1a04006 	mov	r4, r6
    b1bc:	ea000009 	b	b1e8 <_write+0x58>
    b1c0:	e5991008 	ldr	r1, [r9, #8]
    b1c4:	e081219b 	umull	r2, r1, fp, r1
    b1c8:	e59d2004 	ldr	r2, [sp, #4]
    b1cc:	e06231a1 	rsb	r3, r2, r1, lsr #3
    b1d0:	e3530ffa 	cmp	r3, #1000	; 0x3e8
    b1d4:	8a00001f 	bhi	b258 <_write+0xc8>
    b1d8:	e3a06001 	mov	r6, #1
    b1dc:	e0844000 	add	r4, r4, r0
    b1e0:	e1550004 	cmp	r5, r4
    b1e4:	da000013 	ble	b238 <_write+0xa8>
    b1e8:	e0881004 	add	r1, r8, r4
    b1ec:	e0642005 	rsb	r2, r4, r5
    b1f0:	e1a00007 	mov	r0, r7
    b1f4:	eb00003f 	bl	b2f8 <__write>
    b1f8:	e3500000 	cmp	r0, #0
    b1fc:	13a06000 	movne	r6, #0
    b200:	1afffff5 	bne	b1dc <_write+0x4c>
    b204:	e59a3000 	ldr	r3, [sl]
    b208:	e3530000 	cmp	r3, #0
    b20c:	1a00000d 	bne	b248 <_write+0xb8>
    b210:	e3560000 	cmp	r6, #0
    b214:	1affffe9 	bne	b1c0 <_write+0x30>
    b218:	e599c008 	ldr	ip, [r9, #8]
    b21c:	e08c2c9b 	umull	r2, ip, fp, ip
    b220:	e0844000 	add	r4, r4, r0
    b224:	e1a031ac 	lsr	r3, ip, #3
    b228:	e1550004 	cmp	r5, r4
    b22c:	e3a06001 	mov	r6, #1
    b230:	e58d3004 	str	r3, [sp, #4]
    b234:	caffffeb 	bgt	b1e8 <_write+0x58>
    b238:	e1540005 	cmp	r4, r5
    b23c:	059f302c 	ldreq	r3, [pc, #44]	; b270 <_write+0xe0>
    b240:	03a02000 	moveq	r2, #0
    b244:	05832000 	streq	r2, [r3]
    b248:	e1a00004 	mov	r0, r4
    b24c:	e28dd00c 	add	sp, sp, #12
    b250:	e8bd4ff0 	pop	{r4, r5, r6, r7, r8, r9, sl, fp, lr}
    b254:	e12fff1e 	bx	lr
    b258:	e59f0010 	ldr	r0, [pc, #16]	; b270 <_write+0xe0>
    b25c:	e3a02001 	mov	r2, #1
    b260:	e5802000 	str	r2, [r0]
    b264:	eafffff7 	b	b248 <_write+0xb8>
    b268:	e3a04000 	mov	r4, #0
    b26c:	eafffff1 	b	b238 <_write+0xa8>
    b270:	40000900 	.word	0x40000900
    b274:	e0008000 	.word	0xe0008000
    b278:	cccccccd 	.word	0xcccccccd

0000b27c <_read>:
    b27c:	e92d45f8 	push	{r3, r4, r5, r6, r7, r8, sl, lr}
    b280:	e2528000 	subs	r8, r2, #0
    b284:	e1a0a000 	mov	sl, r0
    b288:	e1a07001 	mov	r7, r1
    b28c:	d3a04000 	movle	r4, #0
    b290:	da000013 	ble	b2e4 <_read+0x68>
    b294:	e3a04000 	mov	r4, #0
    b298:	e0876004 	add	r6, r7, r4
    b29c:	e0642008 	rsb	r2, r4, r8
    b2a0:	e1a01006 	mov	r1, r6
    b2a4:	e1a0000a 	mov	r0, sl
    b2a8:	eb000014 	bl	b300 <__read>
    b2ac:	e1a05000 	mov	r5, r0
    b2b0:	e1a01006 	mov	r1, r6
    b2b4:	e3a00001 	mov	r0, #1
    b2b8:	e1a02005 	mov	r2, r5
    b2bc:	ebffffb3 	bl	b190 <_write>
    b2c0:	e0844005 	add	r4, r4, r5
    b2c4:	e3550000 	cmp	r5, #0
    b2c8:	e0873004 	add	r3, r7, r4
    b2cc:	da000002 	ble	b2dc <_read+0x60>
    b2d0:	e5533001 	ldrb	r3, [r3, #-1]
    b2d4:	e353000a 	cmp	r3, #10
    b2d8:	0a000001 	beq	b2e4 <_read+0x68>
    b2dc:	e1580004 	cmp	r8, r4
    b2e0:	caffffec 	bgt	b298 <_read+0x1c>
    b2e4:	e1a00004 	mov	r0, r4
    b2e8:	e8bd45f8 	pop	{r3, r4, r5, r6, r7, r8, sl, lr}
    b2ec:	e12fff1e 	bx	lr

0000b2f0 <_open>:
    b2f0:	ef000001 	svc	0x00000001
    b2f4:	e12fff1e 	bx	lr

0000b2f8 <__write>:
    b2f8:	ef000002 	svc	0x00000002
    b2fc:	e12fff1e 	bx	lr

0000b300 <__read>:
    b300:	ef000003 	svc	0x00000003
    b304:	e12fff1e 	bx	lr

0000b308 <_close>:
    b308:	ef000004 	svc	0x00000004
    b30c:	e12fff1e 	bx	lr

0000b310 <_lseek>:
    b310:	ef000005 	svc	0x00000005
    b314:	e12fff1e 	bx	lr

0000b318 <_fstat>:
    b318:	ef000006 	svc	0x00000006
    b31c:	e12fff1e 	bx	lr

0000b320 <_isatty>:
    b320:	ef000007 	svc	0x00000007
    b324:	e12fff1e 	bx	lr

0000b328 <ioctl>:
    b328:	ef000008 	svc	0x00000008
    b32c:	e12fff1e 	bx	lr

0000b330 <delay_subms>:
    b330:	e59f304c 	ldr	r3, [pc, #76]	; b384 <delay_subms+0x54>
    b334:	e5933008 	ldr	r3, [r3, #8]
    b338:	e0900003 	adds	r0, r0, r3
    b33c:	359f2040 	ldrcc	r2, [pc, #64]	; b384 <delay_subms+0x54>
    b340:	3a000008 	bcc	b368 <delay_subms+0x38>
    b344:	e59f1038 	ldr	r1, [pc, #56]	; b384 <delay_subms+0x54>
    b348:	e5912008 	ldr	r2, [r1, #8]
    b34c:	e1530002 	cmp	r3, r2
    b350:	9afffffc 	bls	b348 <delay_subms+0x18>
    b354:	e59f2028 	ldr	r2, [pc, #40]	; b384 <delay_subms+0x54>
    b358:	e5923008 	ldr	r3, [r2, #8]
    b35c:	e1500003 	cmp	r0, r3
    b360:	8afffffc 	bhi	b358 <delay_subms+0x28>
    b364:	e12fff1e 	bx	lr
    b368:	e5921008 	ldr	r1, [r2, #8]
    b36c:	e1500001 	cmp	r0, r1
    b370:	912fff1e 	bxls	lr
    b374:	e5921008 	ldr	r1, [r2, #8]
    b378:	e1530001 	cmp	r3, r1
    b37c:	9afffff9 	bls	b368 <delay_subms+0x38>
    b380:	e12fff1e 	bx	lr
    b384:	e0008000 	.word	0xe0008000

0000b388 <delay_ms>:
    b388:	e92d4008 	push	{r3, lr}
    b38c:	e0800100 	add	r0, r0, r0, lsl #2
    b390:	e1a00080 	lsl	r0, r0, #1
    b394:	ebffffe5 	bl	b330 <delay_subms>
    b398:	e8bd4008 	pop	{r3, lr}
    b39c:	e12fff1e 	bx	lr

0000b3a0 <clear_interval>:
    b3a0:	e3500003 	cmp	r0, #3
    b3a4:	83e00000 	mvnhi	r0, #0
    b3a8:	812fff1e 	bxhi	lr
    b3ac:	e59f3060 	ldr	r3, [pc, #96]	; b414 <clear_interval+0x74>
    b3b0:	e7933100 	ldr	r3, [r3, r0, lsl #2]
    b3b4:	e3530000 	cmp	r3, #0
    b3b8:	0a000013 	beq	b40c <clear_interval+0x6c>
    b3bc:	e59f3054 	ldr	r3, [pc, #84]	; b418 <clear_interval+0x78>
    b3c0:	e5932014 	ldr	r2, [r3, #20]
    b3c4:	e080c080 	add	ip, r0, r0, lsl #1
    b3c8:	e3a01001 	mov	r1, #1
    b3cc:	e1c22c11 	bic	r2, r2, r1, lsl ip
    b3d0:	e5832014 	str	r2, [r3, #20]
    b3d4:	e1a01011 	lsl	r1, r1, r0
    b3d8:	e5831000 	str	r1, [r3]
    b3dc:	e3a03000 	mov	r3, #0
    b3e0:	e59f2034 	ldr	r2, [pc, #52]	; b41c <clear_interval+0x7c>
    b3e4:	e7823100 	str	r3, [r2, r0, lsl #2]
    b3e8:	e59f2024 	ldr	r2, [pc, #36]	; b414 <clear_interval+0x74>
    b3ec:	e082c100 	add	ip, r2, r0, lsl #2
    b3f0:	e58c3010 	str	r3, [ip, #16]
    b3f4:	e592c020 	ldr	ip, [r2, #32]
    b3f8:	e1cc1001 	bic	r1, ip, r1
    b3fc:	e5821020 	str	r1, [r2, #32]
    b400:	e7823100 	str	r3, [r2, r0, lsl #2]
    b404:	e1a00003 	mov	r0, r3
    b408:	e12fff1e 	bx	lr
    b40c:	e3e00000 	mvn	r0, #0
    b410:	e12fff1e 	bx	lr
    b414:	40000904 	.word	0x40000904
    b418:	e0008000 	.word	0xe0008000
    b41c:	e0008018 	.word	0xe0008018

0000b420 <clear_timeout>:
    b420:	e92d4008 	push	{r3, lr}
    b424:	ebffffdd 	bl	b3a0 <clear_interval>
    b428:	e8bd4008 	pop	{r3, lr}
    b42c:	e12fff1e 	bx	lr

0000b430 <VIC_registerIRQ>:
    b430:	e352000f 	cmp	r2, #15
    b434:	83e00000 	mvnhi	r0, #0
    b438:	812fff1e 	bxhi	lr
    b43c:	e351001f 	cmp	r1, #31
    b440:	8a000009 	bhi	b46c <VIC_registerIRQ+0x3c>
    b444:	e3a0c001 	mov	ip, #1
    b448:	e1a0c11c 	lsl	ip, ip, r1
    b44c:	e3e03000 	mvn	r3, #0
    b450:	e503cfeb 	str	ip, [r3, #-4075]	; 0xfffff015
    b454:	e1a02102 	lsl	r2, r2, #2
    b458:	e5020f00 	str	r0, [r2, #-3840]	; 0xfffff100
    b45c:	e3811020 	orr	r1, r1, #32
    b460:	e5021e00 	str	r1, [r2, #-3584]	; 0xfffff200
    b464:	e3a00000 	mov	r0, #0
    b468:	e12fff1e 	bx	lr
    b46c:	e3e00000 	mvn	r0, #0
    b470:	e12fff1e 	bx	lr

0000b474 <openlpc_init>:
    b474:	e92d4010 	push	{r4, lr}
    b478:	e3a02003 	mov	r2, #3
    b47c:	e59f3094 	ldr	r3, [pc, #148]	; b518 <openlpc_init+0xa4>
    b480:	e58321a0 	str	r2, [r3, #416]	; 0x1a0
    b484:	e59f4090 	ldr	r4, [pc, #144]	; b51c <openlpc_init+0xa8>
    b488:	e3a03002 	mov	r3, #2
    b48c:	e5843004 	str	r3, [r4, #4]
    b490:	e59f2088 	ldr	r2, [pc, #136]	; b520 <openlpc_init+0xac>
    b494:	e3a03000 	mov	r3, #0
    b498:	e1a01002 	mov	r1, r2
    b49c:	e4813004 	str	r3, [r1], #4
    b4a0:	e5823004 	str	r3, [r2, #4]
    b4a4:	e2811004 	add	r1, r1, #4
    b4a8:	e4813004 	str	r3, [r1], #4
    b4ac:	e5813000 	str	r3, [r1]
    b4b0:	e5823010 	str	r3, [r2, #16]
    b4b4:	e5823014 	str	r3, [r2, #20]
    b4b8:	e5823018 	str	r3, [r2, #24]
    b4bc:	e582301c 	str	r3, [r2, #28]
    b4c0:	e5823020 	str	r3, [r2, #32]
    b4c4:	e5843070 	str	r3, [r4, #112]	; 0x70
    b4c8:	e59f2054 	ldr	r2, [pc, #84]	; b524 <openlpc_init+0xb0>
    b4cc:	e584200c 	str	r2, [r4, #12]
    b4d0:	e5843014 	str	r3, [r4, #20]
    b4d4:	e5843028 	str	r3, [r4, #40]	; 0x28
    b4d8:	e3a030ff 	mov	r3, #255	; 0xff
    b4dc:	e5843000 	str	r3, [r4]
    b4e0:	e59f0040 	ldr	r0, [pc, #64]	; b528 <openlpc_init+0xb4>
    b4e4:	e3a01005 	mov	r1, #5
    b4e8:	e3a0200f 	mov	r2, #15
    b4ec:	ebffffcf 	bl	b430 <VIC_registerIRQ>
    b4f0:	e3a03001 	mov	r3, #1
    b4f4:	e5843004 	str	r3, [r4, #4]
    b4f8:	e59f302c 	ldr	r3, [pc, #44]	; b52c <openlpc_init+0xb8>
    b4fc:	e3a02401 	mov	r2, #16777216	; 0x1000000
    b500:	e5032fc7 	str	r2, [r3, #-4039]	; 0xfffff039
    b504:	e5132fdf 	ldr	r2, [r3, #-4063]	; 0xfffff021
    b508:	e3822401 	orr	r2, r2, #16777216	; 0x1000000
    b50c:	e5032fdf 	str	r2, [r3, #-4063]	; 0xfffff021
    b510:	e8bd4010 	pop	{r4, lr}
    b514:	e12fff1e 	bx	lr
    b518:	e01fc000 	.word	0xe01fc000
    b51c:	e0008000 	.word	0xe0008000
    b520:	40000904 	.word	0x40000904
    b524:	0000176f 	.word	0x0000176f
    b528:	0000b750 	.word	0x0000b750
    b52c:	3fffcfff 	.word	0x3fffcfff

0000b530 <disableInts>:
    b530:	e10f0000 	mrs	r0, CPSR
    b534:	e38030c0 	orr	r3, r0, #192	; 0xc0
    b538:	e129f003 	msr	CPSR_fc, r3
    b53c:	e12fff1e 	bx	lr

0000b540 <restoreInts>:
    b540:	e10f3000 	mrs	r3, CPSR
    b544:	e3c320c0 	bic	r2, r3, #192	; 0xc0
    b548:	e20000c0 	and	r0, r0, #192	; 0xc0
    b54c:	e1820000 	orr	r0, r2, r0
    b550:	e129f000 	msr	CPSR_fc, r0
    b554:	e1a00003 	mov	r0, r3
    b558:	e12fff1e 	bx	lr

0000b55c <_set_interval>:
    b55c:	e92d41f0 	push	{r4, r5, r6, r7, r8, lr}
    b560:	e3510000 	cmp	r1, #0
    b564:	03e04000 	mvneq	r4, #0
    b568:	0a00003c 	beq	b660 <_set_interval+0x104>
    b56c:	e59f30f8 	ldr	r3, [pc, #248]	; b66c <_set_interval+0x110>
    b570:	e5933000 	ldr	r3, [r3]
    b574:	e3530000 	cmp	r3, #0
    b578:	0a000011 	beq	b5c4 <_set_interval+0x68>
    b57c:	e59f30e8 	ldr	r3, [pc, #232]	; b66c <_set_interval+0x110>
    b580:	e5933004 	ldr	r3, [r3, #4]
    b584:	e3530000 	cmp	r3, #0
    b588:	0a000009 	beq	b5b4 <_set_interval+0x58>
    b58c:	e59f30d8 	ldr	r3, [pc, #216]	; b66c <_set_interval+0x110>
    b590:	e5933008 	ldr	r3, [r3, #8]
    b594:	e3530000 	cmp	r3, #0
    b598:	0a000007 	beq	b5bc <_set_interval+0x60>
    b59c:	e59f30c8 	ldr	r3, [pc, #200]	; b66c <_set_interval+0x110>
    b5a0:	e593300c 	ldr	r3, [r3, #12]
    b5a4:	e3530000 	cmp	r3, #0
    b5a8:	03a04003 	moveq	r4, #3
    b5ac:	1a00002a 	bne	b65c <_set_interval+0x100>
    b5b0:	ea000004 	b	b5c8 <_set_interval+0x6c>
    b5b4:	e3a04001 	mov	r4, #1
    b5b8:	ea000002 	b	b5c8 <_set_interval+0x6c>
    b5bc:	e3a04002 	mov	r4, #2
    b5c0:	ea000000 	b	b5c8 <_set_interval+0x6c>
    b5c4:	e3a04000 	mov	r4, #0
    b5c8:	e1a06104 	lsl	r6, r4, #2
    b5cc:	e59f709c 	ldr	r7, [pc, #156]	; b670 <_set_interval+0x114>
    b5d0:	e3a03000 	mov	r3, #0
    b5d4:	e7873104 	str	r3, [r7, r4, lsl #2]
    b5d8:	e3a0e001 	mov	lr, #1
    b5dc:	e1a0c41e 	lsl	ip, lr, r4
    b5e0:	e59f308c 	ldr	r3, [pc, #140]	; b674 <_set_interval+0x118>
    b5e4:	e583c000 	str	ip, [r3]
    b5e8:	e5935014 	ldr	r5, [r3, #20]
    b5ec:	e0848084 	add	r8, r4, r4, lsl #1
    b5f0:	e185e81e 	orr	lr, r5, lr, lsl r8
    b5f4:	e583e014 	str	lr, [r3, #20]
    b5f8:	e59f306c 	ldr	r3, [pc, #108]	; b66c <_set_interval+0x110>
    b5fc:	e0833006 	add	r3, r3, r6
    b600:	e0811101 	add	r1, r1, r1, lsl #2
    b604:	e1a01081 	lsl	r1, r1, #1
    b608:	e5831010 	str	r1, [r3, #16]
    b60c:	e3520000 	cmp	r2, #0
    b610:	e59f3054 	ldr	r3, [pc, #84]	; b66c <_set_interval+0x110>
    b614:	e5932020 	ldr	r2, [r3, #32]
    b618:	118cc002 	orrne	ip, ip, r2
    b61c:	01c2c00c 	biceq	ip, r2, ip
    b620:	e583c020 	str	ip, [r3, #32]
    b624:	e59f5040 	ldr	r5, [pc, #64]	; b66c <_set_interval+0x110>
    b628:	e7850104 	str	r0, [r5, r4, lsl #2]
    b62c:	ebffffbf 	bl	b530 <disableInts>
    b630:	e59f303c 	ldr	r3, [pc, #60]	; b674 <_set_interval+0x118>
    b634:	e5932008 	ldr	r2, [r3, #8]
    b638:	e0855104 	add	r5, r5, r4, lsl #2
    b63c:	e5953010 	ldr	r3, [r5, #16]
    b640:	e0823003 	add	r3, r2, r3
    b644:	e7863007 	str	r3, [r6, r7]
    b648:	ebffffbc 	bl	b540 <restoreInts>
    b64c:	e3a02020 	mov	r2, #32
    b650:	e3e03000 	mvn	r3, #0
    b654:	e5032fef 	str	r2, [r3, #-4079]	; 0xfffff011
    b658:	ea000000 	b	b660 <_set_interval+0x104>
    b65c:	e3e04000 	mvn	r4, #0
    b660:	e1a00004 	mov	r0, r4
    b664:	e8bd41f0 	pop	{r4, r5, r6, r7, r8, lr}
    b668:	e12fff1e 	bx	lr
    b66c:	40000904 	.word	0x40000904
    b670:	e0008018 	.word	0xe0008018
    b674:	e0008000 	.word	0xe0008000

0000b678 <set_timeout>:
    b678:	e92d4008 	push	{r3, lr}
    b67c:	e3a02001 	mov	r2, #1
    b680:	ebffffb5 	bl	b55c <_set_interval>
    b684:	e8bd4008 	pop	{r3, lr}
    b688:	e12fff1e 	bx	lr

0000b68c <set_interval>:
    b68c:	e92d4008 	push	{r3, lr}
    b690:	e3a02000 	mov	r2, #0
    b694:	ebffffb0 	bl	b55c <_set_interval>
    b698:	e8bd4008 	pop	{r3, lr}
    b69c:	e12fff1e 	bx	lr

0000b6a0 <_handleIRQ>:
    b6a0:	e92d4010 	push	{r4, lr}
    b6a4:	e1a04000 	mov	r4, r0
    b6a8:	e59f3094 	ldr	r3, [pc, #148]	; b744 <_handleIRQ+0xa4>
    b6ac:	e5932000 	ldr	r2, [r3]
    b6b0:	e3a03001 	mov	r3, #1
    b6b4:	e1a03013 	lsl	r3, r3, r0
    b6b8:	e1130002 	tst	r3, r2
    b6bc:	0a00001e 	beq	b73c <_handleIRQ+0x9c>
    b6c0:	e59f207c 	ldr	r2, [pc, #124]	; b744 <_handleIRQ+0xa4>
    b6c4:	e5823000 	str	r3, [r2]
    b6c8:	e59f3078 	ldr	r3, [pc, #120]	; b748 <_handleIRQ+0xa8>
    b6cc:	e7933100 	ldr	r3, [r3, r0, lsl #2]
    b6d0:	e3530000 	cmp	r3, #0
    b6d4:	0a000018 	beq	b73c <_handleIRQ+0x9c>
    b6d8:	e1a0e00f 	mov	lr, pc
    b6dc:	e12fff13 	bx	r3
    b6e0:	e59f3060 	ldr	r3, [pc, #96]	; b748 <_handleIRQ+0xa8>
    b6e4:	e5933020 	ldr	r3, [r3, #32]
    b6e8:	e1a03453 	asr	r3, r3, r4
    b6ec:	e3130001 	tst	r3, #1
    b6f0:	0a000002 	beq	b700 <_handleIRQ+0x60>
    b6f4:	e1a00004 	mov	r0, r4
    b6f8:	ebffff28 	bl	b3a0 <clear_interval>
    b6fc:	ea00000e 	b	b73c <_handleIRQ+0x9c>
    b700:	ebffff8a 	bl	b530 <disableInts>
    b704:	e59f3040 	ldr	r3, [pc, #64]	; b74c <_handleIRQ+0xac>
    b708:	e7931104 	ldr	r1, [r3, r4, lsl #2]
    b70c:	e59f2034 	ldr	r2, [pc, #52]	; b748 <_handleIRQ+0xa8>
    b710:	e0822104 	add	r2, r2, r4, lsl #2
    b714:	e5922010 	ldr	r2, [r2, #16]
    b718:	e0812002 	add	r2, r1, r2
    b71c:	e59f1020 	ldr	r1, [pc, #32]	; b744 <_handleIRQ+0xa4>
    b720:	e5911008 	ldr	r1, [r1, #8]
    b724:	e1520001 	cmp	r2, r1
    b728:	959f2014 	ldrls	r2, [pc, #20]	; b744 <_handleIRQ+0xa4>
    b72c:	95922008 	ldrls	r2, [r2, #8]
    b730:	9282200a 	addls	r2, r2, #10
    b734:	e7832104 	str	r2, [r3, r4, lsl #2]
    b738:	ebffff80 	bl	b540 <restoreInts>
    b73c:	e8bd4010 	pop	{r4, lr}
    b740:	e12fff1e 	bx	lr
    b744:	e0008000 	.word	0xe0008000
    b748:	40000904 	.word	0x40000904
    b74c:	e0008018 	.word	0xe0008018

0000b750 <openlpc_ISR>:
    b750:	e92d4008 	push	{r3, lr}
    b754:	e3a00000 	mov	r0, #0
    b758:	ebffffd0 	bl	b6a0 <_handleIRQ>
    b75c:	e3a00001 	mov	r0, #1
    b760:	ebffffce 	bl	b6a0 <_handleIRQ>
    b764:	e3a00002 	mov	r0, #2
    b768:	ebffffcc 	bl	b6a0 <_handleIRQ>
    b76c:	e3a00003 	mov	r0, #3
    b770:	ebffffca 	bl	b6a0 <_handleIRQ>
    b774:	e8bd4008 	pop	{r3, lr}
    b778:	e12fff1e 	bx	lr

0000b77c <_sbrk>:
    b77c:	e59f3020 	ldr	r3, [pc, #32]	; b7a4 <_sbrk+0x28>
    b780:	e5933000 	ldr	r3, [r3]
    b784:	e0830000 	add	r0, r3, r0
    b788:	e59f2018 	ldr	r2, [pc, #24]	; b7a8 <_sbrk+0x2c>
    b78c:	e1500002 	cmp	r0, r2
    b790:	959f200c 	ldrls	r2, [pc, #12]	; b7a4 <_sbrk+0x28>
    b794:	95820000 	strls	r0, [r2]
    b798:	91a00003 	movls	r0, r3
    b79c:	83a00000 	movhi	r0, #0
    b7a0:	e12fff1e 	bx	lr
    b7a4:	400008bc 	.word	0x400008bc
    b7a8:	40007ffc 	.word	0x40007ffc

0000b7ac <__aeabi_uidiv>:
    b7ac:	e2512001 	subs	r2, r1, #1
    b7b0:	012fff1e 	bxeq	lr
    b7b4:	3a000036 	bcc	b894 <__aeabi_uidiv+0xe8>
    b7b8:	e1500001 	cmp	r0, r1
    b7bc:	9a000022 	bls	b84c <__aeabi_uidiv+0xa0>
    b7c0:	e1110002 	tst	r1, r2
    b7c4:	0a000023 	beq	b858 <__aeabi_uidiv+0xac>
    b7c8:	e311020e 	tst	r1, #-536870912	; 0xe0000000
    b7cc:	01a01181 	lsleq	r1, r1, #3
    b7d0:	03a03008 	moveq	r3, #8
    b7d4:	13a03001 	movne	r3, #1
    b7d8:	e3510201 	cmp	r1, #268435456	; 0x10000000
    b7dc:	31510000 	cmpcc	r1, r0
    b7e0:	31a01201 	lslcc	r1, r1, #4
    b7e4:	31a03203 	lslcc	r3, r3, #4
    b7e8:	3afffffa 	bcc	b7d8 <__aeabi_uidiv+0x2c>
    b7ec:	e3510102 	cmp	r1, #-2147483648	; 0x80000000
    b7f0:	31510000 	cmpcc	r1, r0
    b7f4:	31a01081 	lslcc	r1, r1, #1
    b7f8:	31a03083 	lslcc	r3, r3, #1
    b7fc:	3afffffa 	bcc	b7ec <__aeabi_uidiv+0x40>
    b800:	e3a02000 	mov	r2, #0
    b804:	e1500001 	cmp	r0, r1
    b808:	20400001 	subcs	r0, r0, r1
    b80c:	21822003 	orrcs	r2, r2, r3
    b810:	e15000a1 	cmp	r0, r1, lsr #1
    b814:	204000a1 	subcs	r0, r0, r1, lsr #1
    b818:	218220a3 	orrcs	r2, r2, r3, lsr #1
    b81c:	e1500121 	cmp	r0, r1, lsr #2
    b820:	20400121 	subcs	r0, r0, r1, lsr #2
    b824:	21822123 	orrcs	r2, r2, r3, lsr #2
    b828:	e15001a1 	cmp	r0, r1, lsr #3
    b82c:	204001a1 	subcs	r0, r0, r1, lsr #3
    b830:	218221a3 	orrcs	r2, r2, r3, lsr #3
    b834:	e3500000 	cmp	r0, #0
    b838:	11b03223 	lsrsne	r3, r3, #4
    b83c:	11a01221 	lsrne	r1, r1, #4
    b840:	1affffef 	bne	b804 <__aeabi_uidiv+0x58>
    b844:	e1a00002 	mov	r0, r2
    b848:	e12fff1e 	bx	lr
    b84c:	03a00001 	moveq	r0, #1
    b850:	13a00000 	movne	r0, #0
    b854:	e12fff1e 	bx	lr
    b858:	e3510801 	cmp	r1, #65536	; 0x10000
    b85c:	21a01821 	lsrcs	r1, r1, #16
    b860:	23a02010 	movcs	r2, #16
    b864:	33a02000 	movcc	r2, #0
    b868:	e3510c01 	cmp	r1, #256	; 0x100
    b86c:	21a01421 	lsrcs	r1, r1, #8
    b870:	22822008 	addcs	r2, r2, #8
    b874:	e3510010 	cmp	r1, #16
    b878:	21a01221 	lsrcs	r1, r1, #4
    b87c:	22822004 	addcs	r2, r2, #4
    b880:	e3510004 	cmp	r1, #4
    b884:	82822003 	addhi	r2, r2, #3
    b888:	908220a1 	addls	r2, r2, r1, lsr #1
    b88c:	e1a00230 	lsr	r0, r0, r2
    b890:	e12fff1e 	bx	lr
    b894:	e3500000 	cmp	r0, #0
    b898:	13e00000 	mvnne	r0, #0
    b89c:	ea000059 	b	ba08 <__aeabi_idiv0>

0000b8a0 <__aeabi_uidivmod>:
    b8a0:	e3510000 	cmp	r1, #0
    b8a4:	0afffffa 	beq	b894 <__aeabi_uidiv+0xe8>
    b8a8:	e92d4003 	push	{r0, r1, lr}
    b8ac:	ebffffbe 	bl	b7ac <__aeabi_uidiv>
    b8b0:	e8bd4006 	pop	{r1, r2, lr}
    b8b4:	e0030092 	mul	r3, r2, r0
    b8b8:	e0411003 	sub	r1, r1, r3
    b8bc:	e12fff1e 	bx	lr

0000b8c0 <__aeabi_idiv>:
    b8c0:	e3510000 	cmp	r1, #0
    b8c4:	0a000043 	beq	b9d8 <.divsi3_skip_div0_test+0x110>

0000b8c8 <.divsi3_skip_div0_test>:
    b8c8:	e020c001 	eor	ip, r0, r1
    b8cc:	42611000 	rsbmi	r1, r1, #0
    b8d0:	e2512001 	subs	r2, r1, #1
    b8d4:	0a000027 	beq	b978 <.divsi3_skip_div0_test+0xb0>
    b8d8:	e1b03000 	movs	r3, r0
    b8dc:	42603000 	rsbmi	r3, r0, #0
    b8e0:	e1530001 	cmp	r3, r1
    b8e4:	9a000026 	bls	b984 <.divsi3_skip_div0_test+0xbc>
    b8e8:	e1110002 	tst	r1, r2
    b8ec:	0a000028 	beq	b994 <.divsi3_skip_div0_test+0xcc>
    b8f0:	e311020e 	tst	r1, #-536870912	; 0xe0000000
    b8f4:	01a01181 	lsleq	r1, r1, #3
    b8f8:	03a02008 	moveq	r2, #8
    b8fc:	13a02001 	movne	r2, #1
    b900:	e3510201 	cmp	r1, #268435456	; 0x10000000
    b904:	31510003 	cmpcc	r1, r3
    b908:	31a01201 	lslcc	r1, r1, #4
    b90c:	31a02202 	lslcc	r2, r2, #4
    b910:	3afffffa 	bcc	b900 <.divsi3_skip_div0_test+0x38>
    b914:	e3510102 	cmp	r1, #-2147483648	; 0x80000000
    b918:	31510003 	cmpcc	r1, r3
    b91c:	31a01081 	lslcc	r1, r1, #1
    b920:	31a02082 	lslcc	r2, r2, #1
    b924:	3afffffa 	bcc	b914 <.divsi3_skip_div0_test+0x4c>
    b928:	e3a00000 	mov	r0, #0
    b92c:	e1530001 	cmp	r3, r1
    b930:	20433001 	subcs	r3, r3, r1
    b934:	21800002 	orrcs	r0, r0, r2
    b938:	e15300a1 	cmp	r3, r1, lsr #1
    b93c:	204330a1 	subcs	r3, r3, r1, lsr #1
    b940:	218000a2 	orrcs	r0, r0, r2, lsr #1
    b944:	e1530121 	cmp	r3, r1, lsr #2
    b948:	20433121 	subcs	r3, r3, r1, lsr #2
    b94c:	21800122 	orrcs	r0, r0, r2, lsr #2
    b950:	e15301a1 	cmp	r3, r1, lsr #3
    b954:	204331a1 	subcs	r3, r3, r1, lsr #3
    b958:	218001a2 	orrcs	r0, r0, r2, lsr #3
    b95c:	e3530000 	cmp	r3, #0
    b960:	11b02222 	lsrsne	r2, r2, #4
    b964:	11a01221 	lsrne	r1, r1, #4
    b968:	1affffef 	bne	b92c <.divsi3_skip_div0_test+0x64>
    b96c:	e35c0000 	cmp	ip, #0
    b970:	42600000 	rsbmi	r0, r0, #0
    b974:	e12fff1e 	bx	lr
    b978:	e13c0000 	teq	ip, r0
    b97c:	42600000 	rsbmi	r0, r0, #0
    b980:	e12fff1e 	bx	lr
    b984:	33a00000 	movcc	r0, #0
    b988:	01a00fcc 	asreq	r0, ip, #31
    b98c:	03800001 	orreq	r0, r0, #1
    b990:	e12fff1e 	bx	lr
    b994:	e3510801 	cmp	r1, #65536	; 0x10000
    b998:	21a01821 	lsrcs	r1, r1, #16
    b99c:	23a02010 	movcs	r2, #16
    b9a0:	33a02000 	movcc	r2, #0
    b9a4:	e3510c01 	cmp	r1, #256	; 0x100
    b9a8:	21a01421 	lsrcs	r1, r1, #8
    b9ac:	22822008 	addcs	r2, r2, #8
    b9b0:	e3510010 	cmp	r1, #16
    b9b4:	21a01221 	lsrcs	r1, r1, #4
    b9b8:	22822004 	addcs	r2, r2, #4
    b9bc:	e3510004 	cmp	r1, #4
    b9c0:	82822003 	addhi	r2, r2, #3
    b9c4:	908220a1 	addls	r2, r2, r1, lsr #1
    b9c8:	e35c0000 	cmp	ip, #0
    b9cc:	e1a00233 	lsr	r0, r3, r2
    b9d0:	42600000 	rsbmi	r0, r0, #0
    b9d4:	e12fff1e 	bx	lr
    b9d8:	e3500000 	cmp	r0, #0
    b9dc:	c3e00102 	mvngt	r0, #-2147483648	; 0x80000000
    b9e0:	b3a00102 	movlt	r0, #-2147483648	; 0x80000000
    b9e4:	ea000007 	b	ba08 <__aeabi_idiv0>

0000b9e8 <__aeabi_idivmod>:
    b9e8:	e3510000 	cmp	r1, #0
    b9ec:	0afffff9 	beq	b9d8 <.divsi3_skip_div0_test+0x110>
    b9f0:	e92d4003 	push	{r0, r1, lr}
    b9f4:	ebffffb3 	bl	b8c8 <.divsi3_skip_div0_test>
    b9f8:	e8bd4006 	pop	{r1, r2, lr}
    b9fc:	e0030092 	mul	r3, r2, r0
    ba00:	e0411003 	sub	r1, r1, r3
    ba04:	e12fff1e 	bx	lr

0000ba08 <__aeabi_idiv0>:
    ba08:	e12fff1e 	bx	lr

0000ba0c <__aeabi_drsub>:
    ba0c:	e2211102 	eor	r1, r1, #-2147483648	; 0x80000000
    ba10:	ea000000 	b	ba18 <__adddf3>

0000ba14 <__aeabi_dsub>:
    ba14:	e2233102 	eor	r3, r3, #-2147483648	; 0x80000000

0000ba18 <__adddf3>:
    ba18:	e92d4030 	push	{r4, r5, lr}
    ba1c:	e1a04081 	lsl	r4, r1, #1
    ba20:	e1a05083 	lsl	r5, r3, #1
    ba24:	e1340005 	teq	r4, r5
    ba28:	01300002 	teqeq	r0, r2
    ba2c:	1194c000 	orrsne	ip, r4, r0
    ba30:	1195c002 	orrsne	ip, r5, r2
    ba34:	11f0cac4 	mvnsne	ip, r4, asr #21
    ba38:	11f0cac5 	mvnsne	ip, r5, asr #21
    ba3c:	0a00008c 	beq	bc74 <__adddf3+0x25c>
    ba40:	e1a04aa4 	lsr	r4, r4, #21
    ba44:	e0745aa5 	rsbs	r5, r4, r5, lsr #21
    ba48:	b2655000 	rsblt	r5, r5, #0
    ba4c:	da000006 	ble	ba6c <__adddf3+0x54>
    ba50:	e0844005 	add	r4, r4, r5
    ba54:	e0202002 	eor	r2, r0, r2
    ba58:	e0213003 	eor	r3, r1, r3
    ba5c:	e0220000 	eor	r0, r2, r0
    ba60:	e0231001 	eor	r1, r3, r1
    ba64:	e0202002 	eor	r2, r0, r2
    ba68:	e0213003 	eor	r3, r1, r3
    ba6c:	e3550036 	cmp	r5, #54	; 0x36
    ba70:	88bd4030 	pophi	{r4, r5, lr}
    ba74:	812fff1e 	bxhi	lr
    ba78:	e3110102 	tst	r1, #-2147483648	; 0x80000000
    ba7c:	e1a01601 	lsl	r1, r1, #12
    ba80:	e3a0c601 	mov	ip, #1048576	; 0x100000
    ba84:	e18c1621 	orr	r1, ip, r1, lsr #12
    ba88:	0a000001 	beq	ba94 <__adddf3+0x7c>
    ba8c:	e2700000 	rsbs	r0, r0, #0
    ba90:	e2e11000 	rsc	r1, r1, #0
    ba94:	e3130102 	tst	r3, #-2147483648	; 0x80000000
    ba98:	e1a03603 	lsl	r3, r3, #12
    ba9c:	e18c3623 	orr	r3, ip, r3, lsr #12
    baa0:	0a000001 	beq	baac <__adddf3+0x94>
    baa4:	e2722000 	rsbs	r2, r2, #0
    baa8:	e2e33000 	rsc	r3, r3, #0
    baac:	e1340005 	teq	r4, r5
    bab0:	0a000069 	beq	bc5c <__adddf3+0x244>
    bab4:	e2444001 	sub	r4, r4, #1
    bab8:	e275e020 	rsbs	lr, r5, #32
    babc:	ba000005 	blt	bad8 <__adddf3+0xc0>
    bac0:	e1a0ce12 	lsl	ip, r2, lr
    bac4:	e0900532 	adds	r0, r0, r2, lsr r5
    bac8:	e2a11000 	adc	r1, r1, #0
    bacc:	e0900e13 	adds	r0, r0, r3, lsl lr
    bad0:	e0b11553 	adcs	r1, r1, r3, asr r5
    bad4:	ea000006 	b	baf4 <__adddf3+0xdc>
    bad8:	e2455020 	sub	r5, r5, #32
    badc:	e28ee020 	add	lr, lr, #32
    bae0:	e3520001 	cmp	r2, #1
    bae4:	e1a0ce13 	lsl	ip, r3, lr
    bae8:	238cc002 	orrcs	ip, ip, #2
    baec:	e0900553 	adds	r0, r0, r3, asr r5
    baf0:	e0b11fc3 	adcs	r1, r1, r3, asr #31
    baf4:	e2015102 	and	r5, r1, #-2147483648	; 0x80000000
    baf8:	5a000002 	bpl	bb08 <__adddf3+0xf0>
    bafc:	e27cc000 	rsbs	ip, ip, #0
    bb00:	e2f00000 	rscs	r0, r0, #0
    bb04:	e2e11000 	rsc	r1, r1, #0
    bb08:	e3510601 	cmp	r1, #1048576	; 0x100000
    bb0c:	3a00000f 	bcc	bb50 <__adddf3+0x138>
    bb10:	e3510602 	cmp	r1, #2097152	; 0x200000
    bb14:	3a000006 	bcc	bb34 <__adddf3+0x11c>
    bb18:	e1b010a1 	lsrs	r1, r1, #1
    bb1c:	e1b00060 	rrxs	r0, r0
    bb20:	e1a0c06c 	rrx	ip, ip
    bb24:	e2844001 	add	r4, r4, #1
    bb28:	e1a02a84 	lsl	r2, r4, #21
    bb2c:	e3720501 	cmn	r2, #4194304	; 0x400000
    bb30:	2a00006b 	bcs	bce4 <__adddf3+0x2cc>
    bb34:	e35c0102 	cmp	ip, #-2147483648	; 0x80000000
    bb38:	01b0c0a0 	lsrseq	ip, r0, #1
    bb3c:	e2b00000 	adcs	r0, r0, #0
    bb40:	e0a11a04 	adc	r1, r1, r4, lsl #20
    bb44:	e1811005 	orr	r1, r1, r5
    bb48:	e8bd4030 	pop	{r4, r5, lr}
    bb4c:	e12fff1e 	bx	lr
    bb50:	e1b0c08c 	lsls	ip, ip, #1
    bb54:	e0b00000 	adcs	r0, r0, r0
    bb58:	e0a11001 	adc	r1, r1, r1
    bb5c:	e3110601 	tst	r1, #1048576	; 0x100000
    bb60:	e2444001 	sub	r4, r4, #1
    bb64:	1afffff2 	bne	bb34 <__adddf3+0x11c>
    bb68:	e3310000 	teq	r1, #0
    bb6c:	13a03014 	movne	r3, #20
    bb70:	03a03034 	moveq	r3, #52	; 0x34
    bb74:	01a01000 	moveq	r1, r0
    bb78:	03a00000 	moveq	r0, #0
    bb7c:	e1a02001 	mov	r2, r1
    bb80:	e3520801 	cmp	r2, #65536	; 0x10000
    bb84:	21a02822 	lsrcs	r2, r2, #16
    bb88:	22433010 	subcs	r3, r3, #16
    bb8c:	e3520c01 	cmp	r2, #256	; 0x100
    bb90:	21a02422 	lsrcs	r2, r2, #8
    bb94:	22433008 	subcs	r3, r3, #8
    bb98:	e3520010 	cmp	r2, #16
    bb9c:	21a02222 	lsrcs	r2, r2, #4
    bba0:	22433004 	subcs	r3, r3, #4
    bba4:	e3520004 	cmp	r2, #4
    bba8:	22433002 	subcs	r3, r3, #2
    bbac:	304330a2 	subcc	r3, r3, r2, lsr #1
    bbb0:	e04331a2 	sub	r3, r3, r2, lsr #3
    bbb4:	e2532020 	subs	r2, r3, #32
    bbb8:	aa000007 	bge	bbdc <__adddf3+0x1c4>
    bbbc:	e292200c 	adds	r2, r2, #12
    bbc0:	da000004 	ble	bbd8 <__adddf3+0x1c0>
    bbc4:	e282c014 	add	ip, r2, #20
    bbc8:	e262200c 	rsb	r2, r2, #12
    bbcc:	e1a00c11 	lsl	r0, r1, ip
    bbd0:	e1a01231 	lsr	r1, r1, r2
    bbd4:	ea000004 	b	bbec <__adddf3+0x1d4>
    bbd8:	e2822014 	add	r2, r2, #20
    bbdc:	d262c020 	rsble	ip, r2, #32
    bbe0:	e1a01211 	lsl	r1, r1, r2
    bbe4:	d1811c30 	orrle	r1, r1, r0, lsr ip
    bbe8:	d1a00210 	lslle	r0, r0, r2
    bbec:	e0544003 	subs	r4, r4, r3
    bbf0:	a0811a04 	addge	r1, r1, r4, lsl #20
    bbf4:	a1811005 	orrge	r1, r1, r5
    bbf8:	a8bd4030 	popge	{r4, r5, lr}
    bbfc:	a12fff1e 	bxge	lr
    bc00:	e1e04004 	mvn	r4, r4
    bc04:	e254401f 	subs	r4, r4, #31
    bc08:	aa00000f 	bge	bc4c <__adddf3+0x234>
    bc0c:	e294400c 	adds	r4, r4, #12
    bc10:	ca000006 	bgt	bc30 <__adddf3+0x218>
    bc14:	e2844014 	add	r4, r4, #20
    bc18:	e2642020 	rsb	r2, r4, #32
    bc1c:	e1a00430 	lsr	r0, r0, r4
    bc20:	e1800211 	orr	r0, r0, r1, lsl r2
    bc24:	e1851431 	orr	r1, r5, r1, lsr r4
    bc28:	e8bd4030 	pop	{r4, r5, lr}
    bc2c:	e12fff1e 	bx	lr
    bc30:	e264400c 	rsb	r4, r4, #12
    bc34:	e2642020 	rsb	r2, r4, #32
    bc38:	e1a00230 	lsr	r0, r0, r2
    bc3c:	e1800411 	orr	r0, r0, r1, lsl r4
    bc40:	e1a01005 	mov	r1, r5
    bc44:	e8bd4030 	pop	{r4, r5, lr}
    bc48:	e12fff1e 	bx	lr
    bc4c:	e1a00431 	lsr	r0, r1, r4
    bc50:	e1a01005 	mov	r1, r5
    bc54:	e8bd4030 	pop	{r4, r5, lr}
    bc58:	e12fff1e 	bx	lr
    bc5c:	e3340000 	teq	r4, #0
    bc60:	e2233601 	eor	r3, r3, #1048576	; 0x100000
    bc64:	02211601 	eoreq	r1, r1, #1048576	; 0x100000
    bc68:	02844001 	addeq	r4, r4, #1
    bc6c:	12455001 	subne	r5, r5, #1
    bc70:	eaffff8f 	b	bab4 <__adddf3+0x9c>
    bc74:	e1f0cac4 	mvns	ip, r4, asr #21
    bc78:	11f0cac5 	mvnsne	ip, r5, asr #21
    bc7c:	0a00001d 	beq	bcf8 <__adddf3+0x2e0>
    bc80:	e1340005 	teq	r4, r5
    bc84:	01300002 	teqeq	r0, r2
    bc88:	0a000004 	beq	bca0 <__adddf3+0x288>
    bc8c:	e194c000 	orrs	ip, r4, r0
    bc90:	01a01003 	moveq	r1, r3
    bc94:	01a00002 	moveq	r0, r2
    bc98:	e8bd4030 	pop	{r4, r5, lr}
    bc9c:	e12fff1e 	bx	lr
    bca0:	e1310003 	teq	r1, r3
    bca4:	13a01000 	movne	r1, #0
    bca8:	13a00000 	movne	r0, #0
    bcac:	18bd4030 	popne	{r4, r5, lr}
    bcb0:	112fff1e 	bxne	lr
    bcb4:	e1b0caa4 	lsrs	ip, r4, #21
    bcb8:	1a000004 	bne	bcd0 <__adddf3+0x2b8>
    bcbc:	e1b00080 	lsls	r0, r0, #1
    bcc0:	e0b11001 	adcs	r1, r1, r1
    bcc4:	23811102 	orrcs	r1, r1, #-2147483648	; 0x80000000
    bcc8:	e8bd4030 	pop	{r4, r5, lr}
    bccc:	e12fff1e 	bx	lr
    bcd0:	e2944501 	adds	r4, r4, #4194304	; 0x400000
    bcd4:	32811601 	addcc	r1, r1, #1048576	; 0x100000
    bcd8:	38bd4030 	popcc	{r4, r5, lr}
    bcdc:	312fff1e 	bxcc	lr
    bce0:	e2015102 	and	r5, r1, #-2147483648	; 0x80000000
    bce4:	e385147f 	orr	r1, r5, #2130706432	; 0x7f000000
    bce8:	e381160f 	orr	r1, r1, #15728640	; 0xf00000
    bcec:	e3a00000 	mov	r0, #0
    bcf0:	e8bd4030 	pop	{r4, r5, lr}
    bcf4:	e12fff1e 	bx	lr
    bcf8:	e1f0cac4 	mvns	ip, r4, asr #21
    bcfc:	11a01003 	movne	r1, r3
    bd00:	11a00002 	movne	r0, r2
    bd04:	01f0cac5 	mvnseq	ip, r5, asr #21
    bd08:	11a03001 	movne	r3, r1
    bd0c:	11a02000 	movne	r2, r0
    bd10:	e1904601 	orrs	r4, r0, r1, lsl #12
    bd14:	01925603 	orrseq	r5, r2, r3, lsl #12
    bd18:	01310003 	teqeq	r1, r3
    bd1c:	13811702 	orrne	r1, r1, #524288	; 0x80000
    bd20:	e8bd4030 	pop	{r4, r5, lr}
    bd24:	e12fff1e 	bx	lr

0000bd28 <__aeabi_ui2d>:
    bd28:	e3300000 	teq	r0, #0
    bd2c:	03a01000 	moveq	r1, #0
    bd30:	012fff1e 	bxeq	lr
    bd34:	e92d4030 	push	{r4, r5, lr}
    bd38:	e3a04b01 	mov	r4, #1024	; 0x400
    bd3c:	e2844032 	add	r4, r4, #50	; 0x32
    bd40:	e3a05000 	mov	r5, #0
    bd44:	e3a01000 	mov	r1, #0
    bd48:	eaffff86 	b	bb68 <__adddf3+0x150>

0000bd4c <__aeabi_i2d>:
    bd4c:	e3300000 	teq	r0, #0
    bd50:	03a01000 	moveq	r1, #0
    bd54:	012fff1e 	bxeq	lr
    bd58:	e92d4030 	push	{r4, r5, lr}
    bd5c:	e3a04b01 	mov	r4, #1024	; 0x400
    bd60:	e2844032 	add	r4, r4, #50	; 0x32
    bd64:	e2105102 	ands	r5, r0, #-2147483648	; 0x80000000
    bd68:	42600000 	rsbmi	r0, r0, #0
    bd6c:	e3a01000 	mov	r1, #0
    bd70:	eaffff7c 	b	bb68 <__adddf3+0x150>

0000bd74 <__aeabi_f2d>:
    bd74:	e1b02080 	lsls	r2, r0, #1
    bd78:	e1a011c2 	asr	r1, r2, #3
    bd7c:	e1a01061 	rrx	r1, r1
    bd80:	e1a00e02 	lsl	r0, r2, #28
    bd84:	121234ff 	andsne	r3, r2, #-16777216	; 0xff000000
    bd88:	133304ff 	teqne	r3, #-16777216	; 0xff000000
    bd8c:	1221130e 	eorne	r1, r1, #939524096	; 0x38000000
    bd90:	112fff1e 	bxne	lr
    bd94:	e3320000 	teq	r2, #0
    bd98:	133304ff 	teqne	r3, #-16777216	; 0xff000000
    bd9c:	012fff1e 	bxeq	lr
    bda0:	e92d4030 	push	{r4, r5, lr}
    bda4:	e3a04d0e 	mov	r4, #896	; 0x380
    bda8:	e2015102 	and	r5, r1, #-2147483648	; 0x80000000
    bdac:	e3c11102 	bic	r1, r1, #-2147483648	; 0x80000000
    bdb0:	eaffff6c 	b	bb68 <__adddf3+0x150>

0000bdb4 <__aeabi_ul2d>:
    bdb4:	e1902001 	orrs	r2, r0, r1
    bdb8:	012fff1e 	bxeq	lr
    bdbc:	e92d4030 	push	{r4, r5, lr}
    bdc0:	e3a05000 	mov	r5, #0
    bdc4:	ea000006 	b	bde4 <__aeabi_l2d+0x1c>

0000bdc8 <__aeabi_l2d>:
    bdc8:	e1902001 	orrs	r2, r0, r1
    bdcc:	012fff1e 	bxeq	lr
    bdd0:	e92d4030 	push	{r4, r5, lr}
    bdd4:	e2115102 	ands	r5, r1, #-2147483648	; 0x80000000
    bdd8:	5a000001 	bpl	bde4 <__aeabi_l2d+0x1c>
    bddc:	e2700000 	rsbs	r0, r0, #0
    bde0:	e2e11000 	rsc	r1, r1, #0
    bde4:	e3a04b01 	mov	r4, #1024	; 0x400
    bde8:	e2844032 	add	r4, r4, #50	; 0x32
    bdec:	e1b0cb21 	lsrs	ip, r1, #22
    bdf0:	0affff44 	beq	bb08 <__adddf3+0xf0>
    bdf4:	e3a02003 	mov	r2, #3
    bdf8:	e1b0c1ac 	lsrs	ip, ip, #3
    bdfc:	12822003 	addne	r2, r2, #3
    be00:	e1b0c1ac 	lsrs	ip, ip, #3
    be04:	12822003 	addne	r2, r2, #3
    be08:	e08221ac 	add	r2, r2, ip, lsr #3
    be0c:	e2623020 	rsb	r3, r2, #32
    be10:	e1a0c310 	lsl	ip, r0, r3
    be14:	e1a00230 	lsr	r0, r0, r2
    be18:	e1800311 	orr	r0, r0, r1, lsl r3
    be1c:	e1a01231 	lsr	r1, r1, r2
    be20:	e0844002 	add	r4, r4, r2
    be24:	eaffff37 	b	bb08 <__adddf3+0xf0>

0000be28 <__aeabi_dmul>:
    be28:	e92d4070 	push	{r4, r5, r6, lr}
    be2c:	e3a0c0ff 	mov	ip, #255	; 0xff
    be30:	e38ccc07 	orr	ip, ip, #1792	; 0x700
    be34:	e01c4a21 	ands	r4, ip, r1, lsr #20
    be38:	101c5a23 	andsne	r5, ip, r3, lsr #20
    be3c:	1134000c 	teqne	r4, ip
    be40:	1135000c 	teqne	r5, ip
    be44:	0b000075 	bleq	c020 <__aeabi_dmul+0x1f8>
    be48:	e0844005 	add	r4, r4, r5
    be4c:	e0216003 	eor	r6, r1, r3
    be50:	e1c11a8c 	bic	r1, r1, ip, lsl #21
    be54:	e1c33a8c 	bic	r3, r3, ip, lsl #21
    be58:	e1905601 	orrs	r5, r0, r1, lsl #12
    be5c:	11925603 	orrsne	r5, r2, r3, lsl #12
    be60:	e3811601 	orr	r1, r1, #1048576	; 0x100000
    be64:	e3833601 	orr	r3, r3, #1048576	; 0x100000
    be68:	0a00001d 	beq	bee4 <__aeabi_dmul+0xbc>
    be6c:	e08ec290 	umull	ip, lr, r0, r2
    be70:	e3a05000 	mov	r5, #0
    be74:	e0a5e291 	umlal	lr, r5, r1, r2
    be78:	e2062102 	and	r2, r6, #-2147483648	; 0x80000000
    be7c:	e0a5e390 	umlal	lr, r5, r0, r3
    be80:	e3a06000 	mov	r6, #0
    be84:	e0a65391 	umlal	r5, r6, r1, r3
    be88:	e33c0000 	teq	ip, #0
    be8c:	138ee001 	orrne	lr, lr, #1
    be90:	e24440ff 	sub	r4, r4, #255	; 0xff
    be94:	e3560c02 	cmp	r6, #512	; 0x200
    be98:	e2c44c03 	sbc	r4, r4, #768	; 0x300
    be9c:	2a000002 	bcs	beac <__aeabi_dmul+0x84>
    bea0:	e1b0e08e 	lsls	lr, lr, #1
    bea4:	e0b55005 	adcs	r5, r5, r5
    bea8:	e0a66006 	adc	r6, r6, r6
    beac:	e1821586 	orr	r1, r2, r6, lsl #11
    beb0:	e1811aa5 	orr	r1, r1, r5, lsr #21
    beb4:	e1a00585 	lsl	r0, r5, #11
    beb8:	e1800aae 	orr	r0, r0, lr, lsr #21
    bebc:	e1a0e58e 	lsl	lr, lr, #11
    bec0:	e254c0fd 	subs	ip, r4, #253	; 0xfd
    bec4:	835c0c07 	cmphi	ip, #1792	; 0x700
    bec8:	8a000011 	bhi	bf14 <__aeabi_dmul+0xec>
    becc:	e35e0102 	cmp	lr, #-2147483648	; 0x80000000
    bed0:	01b0e0a0 	lsrseq	lr, r0, #1
    bed4:	e2b00000 	adcs	r0, r0, #0
    bed8:	e0a11a04 	adc	r1, r1, r4, lsl #20
    bedc:	e8bd4070 	pop	{r4, r5, r6, lr}
    bee0:	e12fff1e 	bx	lr
    bee4:	e2066102 	and	r6, r6, #-2147483648	; 0x80000000
    bee8:	e1861001 	orr	r1, r6, r1
    beec:	e1800002 	orr	r0, r0, r2
    bef0:	e0211003 	eor	r1, r1, r3
    bef4:	e05440ac 	subs	r4, r4, ip, lsr #1
    bef8:	c074500c 	rsbsgt	r5, r4, ip
    befc:	c1811a04 	orrgt	r1, r1, r4, lsl #20
    bf00:	c8bd4070 	popgt	{r4, r5, r6, lr}
    bf04:	c12fff1e 	bxgt	lr
    bf08:	e3811601 	orr	r1, r1, #1048576	; 0x100000
    bf0c:	e3a0e000 	mov	lr, #0
    bf10:	e2544001 	subs	r4, r4, #1
    bf14:	ca00005d 	bgt	c090 <__aeabi_dmul+0x268>
    bf18:	e3740036 	cmn	r4, #54	; 0x36
    bf1c:	d3a00000 	movle	r0, #0
    bf20:	d2011102 	andle	r1, r1, #-2147483648	; 0x80000000
    bf24:	d8bd4070 	pople	{r4, r5, r6, lr}
    bf28:	d12fff1e 	bxle	lr
    bf2c:	e2644000 	rsb	r4, r4, #0
    bf30:	e2544020 	subs	r4, r4, #32
    bf34:	aa00001a 	bge	bfa4 <__aeabi_dmul+0x17c>
    bf38:	e294400c 	adds	r4, r4, #12
    bf3c:	ca00000c 	bgt	bf74 <__aeabi_dmul+0x14c>
    bf40:	e2844014 	add	r4, r4, #20
    bf44:	e2645020 	rsb	r5, r4, #32
    bf48:	e1a03510 	lsl	r3, r0, r5
    bf4c:	e1a00430 	lsr	r0, r0, r4
    bf50:	e1800511 	orr	r0, r0, r1, lsl r5
    bf54:	e2012102 	and	r2, r1, #-2147483648	; 0x80000000
    bf58:	e3c11102 	bic	r1, r1, #-2147483648	; 0x80000000
    bf5c:	e0900fa3 	adds	r0, r0, r3, lsr #31
    bf60:	e0a21431 	adc	r1, r2, r1, lsr r4
    bf64:	e19ee083 	orrs	lr, lr, r3, lsl #1
    bf68:	01c00fa3 	biceq	r0, r0, r3, lsr #31
    bf6c:	e8bd4070 	pop	{r4, r5, r6, lr}
    bf70:	e12fff1e 	bx	lr
    bf74:	e264400c 	rsb	r4, r4, #12
    bf78:	e2645020 	rsb	r5, r4, #32
    bf7c:	e1a03410 	lsl	r3, r0, r4
    bf80:	e1a00530 	lsr	r0, r0, r5
    bf84:	e1800411 	orr	r0, r0, r1, lsl r4
    bf88:	e2011102 	and	r1, r1, #-2147483648	; 0x80000000
    bf8c:	e0900fa3 	adds	r0, r0, r3, lsr #31
    bf90:	e2a11000 	adc	r1, r1, #0
    bf94:	e19ee083 	orrs	lr, lr, r3, lsl #1
    bf98:	01c00fa3 	biceq	r0, r0, r3, lsr #31
    bf9c:	e8bd4070 	pop	{r4, r5, r6, lr}
    bfa0:	e12fff1e 	bx	lr
    bfa4:	e2645020 	rsb	r5, r4, #32
    bfa8:	e18ee510 	orr	lr, lr, r0, lsl r5
    bfac:	e1a03430 	lsr	r3, r0, r4
    bfb0:	e1833511 	orr	r3, r3, r1, lsl r5
    bfb4:	e1a00431 	lsr	r0, r1, r4
    bfb8:	e2011102 	and	r1, r1, #-2147483648	; 0x80000000
    bfbc:	e1c00431 	bic	r0, r0, r1, lsr r4
    bfc0:	e0800fa3 	add	r0, r0, r3, lsr #31
    bfc4:	e19ee083 	orrs	lr, lr, r3, lsl #1
    bfc8:	01c00fa3 	biceq	r0, r0, r3, lsr #31
    bfcc:	e8bd4070 	pop	{r4, r5, r6, lr}
    bfd0:	e12fff1e 	bx	lr
    bfd4:	e3340000 	teq	r4, #0
    bfd8:	1a000008 	bne	c000 <__aeabi_dmul+0x1d8>
    bfdc:	e2016102 	and	r6, r1, #-2147483648	; 0x80000000
    bfe0:	e1b00080 	lsls	r0, r0, #1
    bfe4:	e0a11001 	adc	r1, r1, r1
    bfe8:	e3110601 	tst	r1, #1048576	; 0x100000
    bfec:	02444001 	subeq	r4, r4, #1
    bff0:	0afffffa 	beq	bfe0 <__aeabi_dmul+0x1b8>
    bff4:	e1811006 	orr	r1, r1, r6
    bff8:	e3350000 	teq	r5, #0
    bffc:	112fff1e 	bxne	lr
    c000:	e2036102 	and	r6, r3, #-2147483648	; 0x80000000
    c004:	e1b02082 	lsls	r2, r2, #1
    c008:	e0a33003 	adc	r3, r3, r3
    c00c:	e3130601 	tst	r3, #1048576	; 0x100000
    c010:	02455001 	subeq	r5, r5, #1
    c014:	0afffffa 	beq	c004 <__aeabi_dmul+0x1dc>
    c018:	e1833006 	orr	r3, r3, r6
    c01c:	e12fff1e 	bx	lr
    c020:	e134000c 	teq	r4, ip
    c024:	e00c5a23 	and	r5, ip, r3, lsr #20
    c028:	1135000c 	teqne	r5, ip
    c02c:	0a000007 	beq	c050 <__aeabi_dmul+0x228>
    c030:	e1906081 	orrs	r6, r0, r1, lsl #1
    c034:	11926083 	orrsne	r6, r2, r3, lsl #1
    c038:	1affffe5 	bne	bfd4 <__aeabi_dmul+0x1ac>
    c03c:	e0211003 	eor	r1, r1, r3
    c040:	e2011102 	and	r1, r1, #-2147483648	; 0x80000000
    c044:	e3a00000 	mov	r0, #0
    c048:	e8bd4070 	pop	{r4, r5, r6, lr}
    c04c:	e12fff1e 	bx	lr
    c050:	e1906081 	orrs	r6, r0, r1, lsl #1
    c054:	01a00002 	moveq	r0, r2
    c058:	01a01003 	moveq	r1, r3
    c05c:	11926083 	orrsne	r6, r2, r3, lsl #1
    c060:	0a000010 	beq	c0a8 <__aeabi_dmul+0x280>
    c064:	e134000c 	teq	r4, ip
    c068:	1a000001 	bne	c074 <__aeabi_dmul+0x24c>
    c06c:	e1906601 	orrs	r6, r0, r1, lsl #12
    c070:	1a00000c 	bne	c0a8 <__aeabi_dmul+0x280>
    c074:	e135000c 	teq	r5, ip
    c078:	1a000003 	bne	c08c <__aeabi_dmul+0x264>
    c07c:	e1926603 	orrs	r6, r2, r3, lsl #12
    c080:	11a00002 	movne	r0, r2
    c084:	11a01003 	movne	r1, r3
    c088:	1a000006 	bne	c0a8 <__aeabi_dmul+0x280>
    c08c:	e0211003 	eor	r1, r1, r3
    c090:	e2011102 	and	r1, r1, #-2147483648	; 0x80000000
    c094:	e381147f 	orr	r1, r1, #2130706432	; 0x7f000000
    c098:	e381160f 	orr	r1, r1, #15728640	; 0xf00000
    c09c:	e3a00000 	mov	r0, #0
    c0a0:	e8bd4070 	pop	{r4, r5, r6, lr}
    c0a4:	e12fff1e 	bx	lr
    c0a8:	e381147f 	orr	r1, r1, #2130706432	; 0x7f000000
    c0ac:	e381173e 	orr	r1, r1, #16252928	; 0xf80000
    c0b0:	e8bd4070 	pop	{r4, r5, r6, lr}
    c0b4:	e12fff1e 	bx	lr

0000c0b8 <__aeabi_ddiv>:
    c0b8:	e92d4070 	push	{r4, r5, r6, lr}
    c0bc:	e3a0c0ff 	mov	ip, #255	; 0xff
    c0c0:	e38ccc07 	orr	ip, ip, #1792	; 0x700
    c0c4:	e01c4a21 	ands	r4, ip, r1, lsr #20
    c0c8:	101c5a23 	andsne	r5, ip, r3, lsr #20
    c0cc:	1134000c 	teqne	r4, ip
    c0d0:	1135000c 	teqne	r5, ip
    c0d4:	0b00005e 	bleq	c254 <__aeabi_ddiv+0x19c>
    c0d8:	e0444005 	sub	r4, r4, r5
    c0dc:	e021e003 	eor	lr, r1, r3
    c0e0:	e1925603 	orrs	r5, r2, r3, lsl #12
    c0e4:	e1a01601 	lsl	r1, r1, #12
    c0e8:	0a00004c 	beq	c220 <__aeabi_ddiv+0x168>
    c0ec:	e1a03603 	lsl	r3, r3, #12
    c0f0:	e3a05201 	mov	r5, #268435456	; 0x10000000
    c0f4:	e1853223 	orr	r3, r5, r3, lsr #4
    c0f8:	e1833c22 	orr	r3, r3, r2, lsr #24
    c0fc:	e1a02402 	lsl	r2, r2, #8
    c100:	e1855221 	orr	r5, r5, r1, lsr #4
    c104:	e1855c20 	orr	r5, r5, r0, lsr #24
    c108:	e1a06400 	lsl	r6, r0, #8
    c10c:	e20e1102 	and	r1, lr, #-2147483648	; 0x80000000
    c110:	e1550003 	cmp	r5, r3
    c114:	01560002 	cmpeq	r6, r2
    c118:	e2a440fd 	adc	r4, r4, #253	; 0xfd
    c11c:	e2844c03 	add	r4, r4, #768	; 0x300
    c120:	2a000001 	bcs	c12c <__aeabi_ddiv+0x74>
    c124:	e1b030a3 	lsrs	r3, r3, #1
    c128:	e1a02062 	rrx	r2, r2
    c12c:	e0566002 	subs	r6, r6, r2
    c130:	e0c55003 	sbc	r5, r5, r3
    c134:	e1b030a3 	lsrs	r3, r3, #1
    c138:	e1a02062 	rrx	r2, r2
    c13c:	e3a00601 	mov	r0, #1048576	; 0x100000
    c140:	e3a0c702 	mov	ip, #524288	; 0x80000
    c144:	e056e002 	subs	lr, r6, r2
    c148:	e0d5e003 	sbcs	lr, r5, r3
    c14c:	20466002 	subcs	r6, r6, r2
    c150:	21a0500e 	movcs	r5, lr
    c154:	2180000c 	orrcs	r0, r0, ip
    c158:	e1b030a3 	lsrs	r3, r3, #1
    c15c:	e1a02062 	rrx	r2, r2
    c160:	e056e002 	subs	lr, r6, r2
    c164:	e0d5e003 	sbcs	lr, r5, r3
    c168:	20466002 	subcs	r6, r6, r2
    c16c:	21a0500e 	movcs	r5, lr
    c170:	218000ac 	orrcs	r0, r0, ip, lsr #1
    c174:	e1b030a3 	lsrs	r3, r3, #1
    c178:	e1a02062 	rrx	r2, r2
    c17c:	e056e002 	subs	lr, r6, r2
    c180:	e0d5e003 	sbcs	lr, r5, r3
    c184:	20466002 	subcs	r6, r6, r2
    c188:	21a0500e 	movcs	r5, lr
    c18c:	2180012c 	orrcs	r0, r0, ip, lsr #2
    c190:	e1b030a3 	lsrs	r3, r3, #1
    c194:	e1a02062 	rrx	r2, r2
    c198:	e056e002 	subs	lr, r6, r2
    c19c:	e0d5e003 	sbcs	lr, r5, r3
    c1a0:	20466002 	subcs	r6, r6, r2
    c1a4:	21a0500e 	movcs	r5, lr
    c1a8:	218001ac 	orrcs	r0, r0, ip, lsr #3
    c1ac:	e195e006 	orrs	lr, r5, r6
    c1b0:	0a00000d 	beq	c1ec <__aeabi_ddiv+0x134>
    c1b4:	e1a05205 	lsl	r5, r5, #4
    c1b8:	e1855e26 	orr	r5, r5, r6, lsr #28
    c1bc:	e1a06206 	lsl	r6, r6, #4
    c1c0:	e1a03183 	lsl	r3, r3, #3
    c1c4:	e1833ea2 	orr	r3, r3, r2, lsr #29
    c1c8:	e1a02182 	lsl	r2, r2, #3
    c1cc:	e1b0c22c 	lsrs	ip, ip, #4
    c1d0:	1affffdb 	bne	c144 <__aeabi_ddiv+0x8c>
    c1d4:	e3110601 	tst	r1, #1048576	; 0x100000
    c1d8:	1a000006 	bne	c1f8 <__aeabi_ddiv+0x140>
    c1dc:	e1811000 	orr	r1, r1, r0
    c1e0:	e3a00000 	mov	r0, #0
    c1e4:	e3a0c102 	mov	ip, #-2147483648	; 0x80000000
    c1e8:	eaffffd5 	b	c144 <__aeabi_ddiv+0x8c>
    c1ec:	e3110601 	tst	r1, #1048576	; 0x100000
    c1f0:	01811000 	orreq	r1, r1, r0
    c1f4:	03a00000 	moveq	r0, #0
    c1f8:	e254c0fd 	subs	ip, r4, #253	; 0xfd
    c1fc:	835c0c07 	cmphi	ip, #1792	; 0x700
    c200:	8affff43 	bhi	bf14 <__aeabi_dmul+0xec>
    c204:	e055c003 	subs	ip, r5, r3
    c208:	0056c002 	subseq	ip, r6, r2
    c20c:	01b0c0a0 	lsrseq	ip, r0, #1
    c210:	e2b00000 	adcs	r0, r0, #0
    c214:	e0a11a04 	adc	r1, r1, r4, lsl #20
    c218:	e8bd4070 	pop	{r4, r5, r6, lr}
    c21c:	e12fff1e 	bx	lr
    c220:	e20ee102 	and	lr, lr, #-2147483648	; 0x80000000
    c224:	e18e1621 	orr	r1, lr, r1, lsr #12
    c228:	e09440ac 	adds	r4, r4, ip, lsr #1
    c22c:	c074500c 	rsbsgt	r5, r4, ip
    c230:	c1811a04 	orrgt	r1, r1, r4, lsl #20
    c234:	c8bd4070 	popgt	{r4, r5, r6, lr}
    c238:	c12fff1e 	bxgt	lr
    c23c:	e3811601 	orr	r1, r1, #1048576	; 0x100000
    c240:	e3a0e000 	mov	lr, #0
    c244:	e2544001 	subs	r4, r4, #1
    c248:	eaffff31 	b	bf14 <__aeabi_dmul+0xec>
    c24c:	e185e006 	orr	lr, r5, r6
    c250:	eaffff2f 	b	bf14 <__aeabi_dmul+0xec>
    c254:	e00c5a23 	and	r5, ip, r3, lsr #20
    c258:	e134000c 	teq	r4, ip
    c25c:	0135000c 	teqeq	r5, ip
    c260:	0affff90 	beq	c0a8 <__aeabi_dmul+0x280>
    c264:	e134000c 	teq	r4, ip
    c268:	1a000006 	bne	c288 <__aeabi_ddiv+0x1d0>
    c26c:	e1904601 	orrs	r4, r0, r1, lsl #12
    c270:	1affff8c 	bne	c0a8 <__aeabi_dmul+0x280>
    c274:	e135000c 	teq	r5, ip
    c278:	1affff83 	bne	c08c <__aeabi_dmul+0x264>
    c27c:	e1a00002 	mov	r0, r2
    c280:	e1a01003 	mov	r1, r3
    c284:	eaffff87 	b	c0a8 <__aeabi_dmul+0x280>
    c288:	e135000c 	teq	r5, ip
    c28c:	1a000004 	bne	c2a4 <__aeabi_ddiv+0x1ec>
    c290:	e1925603 	orrs	r5, r2, r3, lsl #12
    c294:	0affff68 	beq	c03c <__aeabi_dmul+0x214>
    c298:	e1a00002 	mov	r0, r2
    c29c:	e1a01003 	mov	r1, r3
    c2a0:	eaffff80 	b	c0a8 <__aeabi_dmul+0x280>
    c2a4:	e1906081 	orrs	r6, r0, r1, lsl #1
    c2a8:	11926083 	orrsne	r6, r2, r3, lsl #1
    c2ac:	1affff48 	bne	bfd4 <__aeabi_dmul+0x1ac>
    c2b0:	e1904081 	orrs	r4, r0, r1, lsl #1
    c2b4:	1affff74 	bne	c08c <__aeabi_dmul+0x264>
    c2b8:	e1925083 	orrs	r5, r2, r3, lsl #1
    c2bc:	1affff5e 	bne	c03c <__aeabi_dmul+0x214>
    c2c0:	eaffff78 	b	c0a8 <__aeabi_dmul+0x280>

0000c2c4 <__gedf2>:
    c2c4:	e3e0c000 	mvn	ip, #0
    c2c8:	ea000002 	b	c2d8 <__cmpdf2+0x4>

0000c2cc <__ledf2>:
    c2cc:	e3a0c001 	mov	ip, #1
    c2d0:	ea000000 	b	c2d8 <__cmpdf2+0x4>

0000c2d4 <__cmpdf2>:
    c2d4:	e3a0c001 	mov	ip, #1
    c2d8:	e52dc004 	push	{ip}		; (str ip, [sp, #-4]!)
    c2dc:	e1a0c081 	lsl	ip, r1, #1
    c2e0:	e1f0cacc 	mvns	ip, ip, asr #21
    c2e4:	e1a0c083 	lsl	ip, r3, #1
    c2e8:	11f0cacc 	mvnsne	ip, ip, asr #21
    c2ec:	0a00000e 	beq	c32c <__cmpdf2+0x58>
    c2f0:	e28dd004 	add	sp, sp, #4
    c2f4:	e190c081 	orrs	ip, r0, r1, lsl #1
    c2f8:	0192c083 	orrseq	ip, r2, r3, lsl #1
    c2fc:	11310003 	teqne	r1, r3
    c300:	01300002 	teqeq	r0, r2
    c304:	03a00000 	moveq	r0, #0
    c308:	012fff1e 	bxeq	lr
    c30c:	e3700000 	cmn	r0, #0
    c310:	e1310003 	teq	r1, r3
    c314:	51510003 	cmppl	r1, r3
    c318:	01500002 	cmpeq	r0, r2
    c31c:	21a00fc3 	asrcs	r0, r3, #31
    c320:	31e00fc3 	mvncc	r0, r3, asr #31
    c324:	e3800001 	orr	r0, r0, #1
    c328:	e12fff1e 	bx	lr
    c32c:	e1a0c081 	lsl	ip, r1, #1
    c330:	e1f0cacc 	mvns	ip, ip, asr #21
    c334:	1a000001 	bne	c340 <__cmpdf2+0x6c>
    c338:	e190c601 	orrs	ip, r0, r1, lsl #12
    c33c:	1a000004 	bne	c354 <__cmpdf2+0x80>
    c340:	e1a0c083 	lsl	ip, r3, #1
    c344:	e1f0cacc 	mvns	ip, ip, asr #21
    c348:	1affffe8 	bne	c2f0 <__cmpdf2+0x1c>
    c34c:	e192c603 	orrs	ip, r2, r3, lsl #12
    c350:	0affffe6 	beq	c2f0 <__cmpdf2+0x1c>
    c354:	e49d0004 	pop	{r0}		; (ldr r0, [sp], #4)
    c358:	e12fff1e 	bx	lr

0000c35c <__aeabi_cdrcmple>:
    c35c:	e1a0c000 	mov	ip, r0
    c360:	e1a00002 	mov	r0, r2
    c364:	e1a0200c 	mov	r2, ip
    c368:	e1a0c001 	mov	ip, r1
    c36c:	e1a01003 	mov	r1, r3
    c370:	e1a0300c 	mov	r3, ip
    c374:	eaffffff 	b	c378 <__aeabi_cdcmpeq>

0000c378 <__aeabi_cdcmpeq>:
    c378:	e92d4001 	push	{r0, lr}
    c37c:	ebffffd4 	bl	c2d4 <__cmpdf2>
    c380:	e3500000 	cmp	r0, #0
    c384:	43700000 	cmnmi	r0, #0
    c388:	e8bd4001 	pop	{r0, lr}
    c38c:	e12fff1e 	bx	lr

0000c390 <__aeabi_dcmpeq>:
    c390:	e52de008 	str	lr, [sp, #-8]!
    c394:	ebfffff7 	bl	c378 <__aeabi_cdcmpeq>
    c398:	03a00001 	moveq	r0, #1
    c39c:	13a00000 	movne	r0, #0
    c3a0:	e49de008 	ldr	lr, [sp], #8
    c3a4:	e12fff1e 	bx	lr

0000c3a8 <__aeabi_dcmplt>:
    c3a8:	e52de008 	str	lr, [sp, #-8]!
    c3ac:	ebfffff1 	bl	c378 <__aeabi_cdcmpeq>
    c3b0:	33a00001 	movcc	r0, #1
    c3b4:	23a00000 	movcs	r0, #0
    c3b8:	e49de008 	ldr	lr, [sp], #8
    c3bc:	e12fff1e 	bx	lr

0000c3c0 <__aeabi_dcmple>:
    c3c0:	e52de008 	str	lr, [sp, #-8]!
    c3c4:	ebffffeb 	bl	c378 <__aeabi_cdcmpeq>
    c3c8:	93a00001 	movls	r0, #1
    c3cc:	83a00000 	movhi	r0, #0
    c3d0:	e49de008 	ldr	lr, [sp], #8
    c3d4:	e12fff1e 	bx	lr

0000c3d8 <__aeabi_dcmpge>:
    c3d8:	e52de008 	str	lr, [sp, #-8]!
    c3dc:	ebffffde 	bl	c35c <__aeabi_cdrcmple>
    c3e0:	93a00001 	movls	r0, #1
    c3e4:	83a00000 	movhi	r0, #0
    c3e8:	e49de008 	ldr	lr, [sp], #8
    c3ec:	e12fff1e 	bx	lr

0000c3f0 <__aeabi_dcmpgt>:
    c3f0:	e52de008 	str	lr, [sp, #-8]!
    c3f4:	ebffffd8 	bl	c35c <__aeabi_cdrcmple>
    c3f8:	33a00001 	movcc	r0, #1
    c3fc:	23a00000 	movcs	r0, #0
    c400:	e49de008 	ldr	lr, [sp], #8
    c404:	e12fff1e 	bx	lr

0000c408 <__aeabi_d2iz>:
    c408:	e1a02081 	lsl	r2, r1, #1
    c40c:	e2922602 	adds	r2, r2, #2097152	; 0x200000
    c410:	2a00000c 	bcs	c448 <__aeabi_d2iz+0x40>
    c414:	5a000009 	bpl	c440 <__aeabi_d2iz+0x38>
    c418:	e3e03e3e 	mvn	r3, #992	; 0x3e0
    c41c:	e0532ac2 	subs	r2, r3, r2, asr #21
    c420:	9a00000a 	bls	c450 <__aeabi_d2iz+0x48>
    c424:	e1a03581 	lsl	r3, r1, #11
    c428:	e3833102 	orr	r3, r3, #-2147483648	; 0x80000000
    c42c:	e1833aa0 	orr	r3, r3, r0, lsr #21
    c430:	e3110102 	tst	r1, #-2147483648	; 0x80000000
    c434:	e1a00233 	lsr	r0, r3, r2
    c438:	12600000 	rsbne	r0, r0, #0
    c43c:	e12fff1e 	bx	lr
    c440:	e3a00000 	mov	r0, #0
    c444:	e12fff1e 	bx	lr
    c448:	e1900601 	orrs	r0, r0, r1, lsl #12
    c44c:	1a000002 	bne	c45c <__aeabi_d2iz+0x54>
    c450:	e2110102 	ands	r0, r1, #-2147483648	; 0x80000000
    c454:	03e00102 	mvneq	r0, #-2147483648	; 0x80000000
    c458:	e12fff1e 	bx	lr
    c45c:	e3a00000 	mov	r0, #0
    c460:	e12fff1e 	bx	lr

0000c464 <__aeabi_uldivmod>:
    c464:	e3530000 	cmp	r3, #0
    c468:	03520000 	cmpeq	r2, #0
    c46c:	1a000004 	bne	c484 <__aeabi_uldivmod+0x20>
    c470:	e3510000 	cmp	r1, #0
    c474:	03500000 	cmpeq	r0, #0
    c478:	13e01000 	mvnne	r1, #0
    c47c:	13e00000 	mvnne	r0, #0
    c480:	eafffd60 	b	ba08 <__aeabi_idiv0>
    c484:	e24dd008 	sub	sp, sp, #8
    c488:	e92d6000 	push	{sp, lr}
    c48c:	eb000013 	bl	c4e0 <__gnu_uldivmod_helper>
    c490:	e59de004 	ldr	lr, [sp, #4]
    c494:	e28dd008 	add	sp, sp, #8
    c498:	e8bd000c 	pop	{r2, r3}
    c49c:	e12fff1e 	bx	lr

0000c4a0 <__gnu_ldivmod_helper>:
    c4a0:	e92d40f8 	push	{r3, r4, r5, r6, r7, lr}
    c4a4:	e1a04002 	mov	r4, r2
    c4a8:	e1a07003 	mov	r7, r3
    c4ac:	e1a05000 	mov	r5, r0
    c4b0:	e1a06001 	mov	r6, r1
    c4b4:	eb000019 	bl	c520 <__divdi3>
    c4b8:	e0070790 	mul	r7, r0, r7
    c4bc:	e0832490 	umull	r2, r3, r0, r4
    c4c0:	e0247491 	mla	r4, r1, r4, r7
    c4c4:	e0843003 	add	r3, r4, r3
    c4c8:	e0555002 	subs	r5, r5, r2
    c4cc:	e0c66003 	sbc	r6, r6, r3
    c4d0:	e59d3018 	ldr	r3, [sp, #24]
    c4d4:	e8830060 	stm	r3, {r5, r6}
    c4d8:	e8bd40f8 	pop	{r3, r4, r5, r6, r7, lr}
    c4dc:	e12fff1e 	bx	lr

0000c4e0 <__gnu_uldivmod_helper>:
    c4e0:	e92d40f8 	push	{r3, r4, r5, r6, r7, lr}
    c4e4:	e1a04002 	mov	r4, r2
    c4e8:	e1a07003 	mov	r7, r3
    c4ec:	e1a05000 	mov	r5, r0
    c4f0:	e1a06001 	mov	r6, r1
    c4f4:	eb000133 	bl	c9c8 <__udivdi3>
    c4f8:	e0070790 	mul	r7, r0, r7
    c4fc:	e0832490 	umull	r2, r3, r0, r4
    c500:	e0247491 	mla	r4, r1, r4, r7
    c504:	e0843003 	add	r3, r4, r3
    c508:	e0555002 	subs	r5, r5, r2
    c50c:	e0c66003 	sbc	r6, r6, r3
    c510:	e59d3018 	ldr	r3, [sp, #24]
    c514:	e8830060 	stm	r3, {r5, r6}
    c518:	e8bd40f8 	pop	{r3, r4, r5, r6, r7, lr}
    c51c:	e12fff1e 	bx	lr

0000c520 <__divdi3>:
    c520:	e92d4ff0 	push	{r4, r5, r6, r7, r8, r9, sl, fp, lr}
    c524:	e3510000 	cmp	r1, #0
    c528:	e24dd014 	sub	sp, sp, #20
    c52c:	e1a0c003 	mov	ip, r3
    c530:	a3a07000 	movge	r7, #0
    c534:	ba000094 	blt	c78c <__divdi3+0x26c>
    c538:	e35c0000 	cmp	ip, #0
    c53c:	ba00008e 	blt	c77c <__divdi3+0x25c>
    c540:	e253a000 	subs	sl, r3, #0
    c544:	e1a0b000 	mov	fp, r0
    c548:	e1a08001 	mov	r8, r1
    c54c:	e1a09002 	mov	r9, r2
    c550:	e1a04002 	mov	r4, r2
    c554:	e1a05000 	mov	r5, r0
    c558:	e1a06001 	mov	r6, r1
    c55c:	1a00003e 	bne	c65c <__divdi3+0x13c>
    c560:	e1520001 	cmp	r2, r1
    c564:	9a00004c 	bls	c69c <__divdi3+0x17c>
    c568:	e1a00002 	mov	r0, r2
    c56c:	eb000222 	bl	cdfc <__clzsi2>
    c570:	e3500000 	cmp	r0, #0
    c574:	12603020 	rsbne	r3, r0, #32
    c578:	11a0333b 	lsrne	r3, fp, r3
    c57c:	11a04019 	lslne	r4, r9, r0
    c580:	11836018 	orrne	r6, r3, r8, lsl r0
    c584:	e1a09824 	lsr	r9, r4, #16
    c588:	11a0501b 	lslne	r5, fp, r0
    c58c:	e1a01009 	mov	r1, r9
    c590:	e1a00006 	mov	r0, r6
    c594:	ebfffc84 	bl	b7ac <__aeabi_uidiv>
    c598:	e1a01009 	mov	r1, r9
    c59c:	e1a0a000 	mov	sl, r0
    c5a0:	e1a00006 	mov	r0, r6
    c5a4:	ebfffcbd 	bl	b8a0 <__aeabi_uidivmod>
    c5a8:	e1a08804 	lsl	r8, r4, #16
    c5ac:	e1a08828 	lsr	r8, r8, #16
    c5b0:	e0030a98 	mul	r3, r8, sl
    c5b4:	e1a0b825 	lsr	fp, r5, #16
    c5b8:	e18bb801 	orr	fp, fp, r1, lsl #16
    c5bc:	e153000b 	cmp	r3, fp
    c5c0:	9a000005 	bls	c5dc <__divdi3+0xbc>
    c5c4:	e09bb004 	adds	fp, fp, r4
    c5c8:	e24aa001 	sub	sl, sl, #1
    c5cc:	2a000002 	bcs	c5dc <__divdi3+0xbc>
    c5d0:	e153000b 	cmp	r3, fp
    c5d4:	824aa001 	subhi	sl, sl, #1
    c5d8:	808bb004 	addhi	fp, fp, r4
    c5dc:	e063b00b 	rsb	fp, r3, fp
    c5e0:	e1a01009 	mov	r1, r9
    c5e4:	e1a0000b 	mov	r0, fp
    c5e8:	ebfffc6f 	bl	b7ac <__aeabi_uidiv>
    c5ec:	e1a01009 	mov	r1, r9
    c5f0:	e1a06000 	mov	r6, r0
    c5f4:	e1a0000b 	mov	r0, fp
    c5f8:	ebfffca8 	bl	b8a0 <__aeabi_uidivmod>
    c5fc:	e0080896 	mul	r8, r6, r8
    c600:	e1a00805 	lsl	r0, r5, #16
    c604:	e1a05820 	lsr	r5, r0, #16
    c608:	e1855801 	orr	r5, r5, r1, lsl #16
    c60c:	e1580005 	cmp	r8, r5
    c610:	9a000004 	bls	c628 <__divdi3+0x108>
    c614:	e0955004 	adds	r5, r5, r4
    c618:	e2466001 	sub	r6, r6, #1
    c61c:	2a000001 	bcs	c628 <__divdi3+0x108>
    c620:	e1580005 	cmp	r8, r5
    c624:	82466001 	subhi	r6, r6, #1
    c628:	e186680a 	orr	r6, r6, sl, lsl #16
    c62c:	e3a09000 	mov	r9, #0
    c630:	e3570000 	cmp	r7, #0
    c634:	e1a03006 	mov	r3, r6
    c638:	e1a04009 	mov	r4, r9
    c63c:	0a000001 	beq	c648 <__divdi3+0x128>
    c640:	e2733000 	rsbs	r3, r3, #0
    c644:	e2e44000 	rsc	r4, r4, #0
    c648:	e1a00003 	mov	r0, r3
    c64c:	e1a01004 	mov	r1, r4
    c650:	e28dd014 	add	sp, sp, #20
    c654:	e8bd4ff0 	pop	{r4, r5, r6, r7, r8, r9, sl, fp, lr}
    c658:	e12fff1e 	bx	lr
    c65c:	e15a0001 	cmp	sl, r1
    c660:	83a09000 	movhi	r9, #0
    c664:	81a06009 	movhi	r6, r9
    c668:	8afffff0 	bhi	c630 <__divdi3+0x110>
    c66c:	e1a00003 	mov	r0, r3
    c670:	eb0001e1 	bl	cdfc <__clzsi2>
    c674:	e2504000 	subs	r4, r0, #0
    c678:	1a00007a 	bne	c868 <__divdi3+0x348>
    c67c:	e15a0008 	cmp	sl, r8
    c680:	2159000b 	cmpcs	r9, fp
    c684:	83a09000 	movhi	r9, #0
    c688:	93a09001 	movls	r9, #1
    c68c:	93a06001 	movls	r6, #1
    c690:	91a09004 	movls	r9, r4
    c694:	81a06009 	movhi	r6, r9
    c698:	eaffffe4 	b	c630 <__divdi3+0x110>
    c69c:	e3520000 	cmp	r2, #0
    c6a0:	1a000003 	bne	c6b4 <__divdi3+0x194>
    c6a4:	e3a00001 	mov	r0, #1
    c6a8:	e1a01002 	mov	r1, r2
    c6ac:	ebfffc3e 	bl	b7ac <__aeabi_uidiv>
    c6b0:	e1a04000 	mov	r4, r0
    c6b4:	e1a00004 	mov	r0, r4
    c6b8:	eb0001cf 	bl	cdfc <__clzsi2>
    c6bc:	e2503000 	subs	r3, r0, #0
    c6c0:	1a000035 	bne	c79c <__divdi3+0x27c>
    c6c4:	e3a01001 	mov	r1, #1
    c6c8:	e1a09804 	lsl	r9, r4, #16
    c6cc:	e58d1008 	str	r1, [sp, #8]
    c6d0:	e0646006 	rsb	r6, r4, r6
    c6d4:	e1a08824 	lsr	r8, r4, #16
    c6d8:	e1a09829 	lsr	r9, r9, #16
    c6dc:	e1a01008 	mov	r1, r8
    c6e0:	e1a00006 	mov	r0, r6
    c6e4:	ebfffc30 	bl	b7ac <__aeabi_uidiv>
    c6e8:	e1a01008 	mov	r1, r8
    c6ec:	e1a0a000 	mov	sl, r0
    c6f0:	e1a00006 	mov	r0, r6
    c6f4:	ebfffc69 	bl	b8a0 <__aeabi_uidivmod>
    c6f8:	e0030a99 	mul	r3, r9, sl
    c6fc:	e1a0c825 	lsr	ip, r5, #16
    c700:	e18cb801 	orr	fp, ip, r1, lsl #16
    c704:	e153000b 	cmp	r3, fp
    c708:	9a000005 	bls	c724 <__divdi3+0x204>
    c70c:	e09bb004 	adds	fp, fp, r4
    c710:	e24aa001 	sub	sl, sl, #1
    c714:	2a000002 	bcs	c724 <__divdi3+0x204>
    c718:	e153000b 	cmp	r3, fp
    c71c:	824aa001 	subhi	sl, sl, #1
    c720:	808bb004 	addhi	fp, fp, r4
    c724:	e063b00b 	rsb	fp, r3, fp
    c728:	e1a01008 	mov	r1, r8
    c72c:	e1a0000b 	mov	r0, fp
    c730:	ebfffc1d 	bl	b7ac <__aeabi_uidiv>
    c734:	e1a01008 	mov	r1, r8
    c738:	e1a06000 	mov	r6, r0
    c73c:	e1a0000b 	mov	r0, fp
    c740:	ebfffc56 	bl	b8a0 <__aeabi_uidivmod>
    c744:	e0090996 	mul	r9, r6, r9
    c748:	e1a00805 	lsl	r0, r5, #16
    c74c:	e1a05820 	lsr	r5, r0, #16
    c750:	e1855801 	orr	r5, r5, r1, lsl #16
    c754:	e1590005 	cmp	r9, r5
    c758:	9a000004 	bls	c770 <__divdi3+0x250>
    c75c:	e0955004 	adds	r5, r5, r4
    c760:	e2466001 	sub	r6, r6, #1
    c764:	2a000001 	bcs	c770 <__divdi3+0x250>
    c768:	e1590005 	cmp	r9, r5
    c76c:	82466001 	subhi	r6, r6, #1
    c770:	e186680a 	orr	r6, r6, sl, lsl #16
    c774:	e59d9008 	ldr	r9, [sp, #8]
    c778:	eaffffac 	b	c630 <__divdi3+0x110>
    c77c:	e1e07007 	mvn	r7, r7
    c780:	e2722000 	rsbs	r2, r2, #0
    c784:	e2e33000 	rsc	r3, r3, #0
    c788:	eaffff6c 	b	c540 <__divdi3+0x20>
    c78c:	e2700000 	rsbs	r0, r0, #0
    c790:	e2e11000 	rsc	r1, r1, #0
    c794:	e3e07000 	mvn	r7, #0
    c798:	eaffff66 	b	c538 <__divdi3+0x18>
    c79c:	e2638020 	rsb	r8, r3, #32
    c7a0:	e1a0b835 	lsr	fp, r5, r8
    c7a4:	e1a04314 	lsl	r4, r4, r3
    c7a8:	e1a0a836 	lsr	sl, r6, r8
    c7ac:	e18be316 	orr	lr, fp, r6, lsl r3
    c7b0:	e1a08824 	lsr	r8, r4, #16
    c7b4:	e1a0c804 	lsl	ip, r4, #16
    c7b8:	e1a01008 	mov	r1, r8
    c7bc:	e1a0000a 	mov	r0, sl
    c7c0:	e1a0982c 	lsr	r9, ip, #16
    c7c4:	e1a05315 	lsl	r5, r5, r3
    c7c8:	e58de008 	str	lr, [sp, #8]
    c7cc:	ebfffbf6 	bl	b7ac <__aeabi_uidiv>
    c7d0:	e1a01008 	mov	r1, r8
    c7d4:	e1a0b000 	mov	fp, r0
    c7d8:	e1a0000a 	mov	r0, sl
    c7dc:	ebfffc2f 	bl	b8a0 <__aeabi_uidivmod>
    c7e0:	e0030b99 	mul	r3, r9, fp
    c7e4:	e59d2008 	ldr	r2, [sp, #8]
    c7e8:	e1a06822 	lsr	r6, r2, #16
    c7ec:	e1866801 	orr	r6, r6, r1, lsl #16
    c7f0:	e1530006 	cmp	r3, r6
    c7f4:	9a000002 	bls	c804 <__divdi3+0x2e4>
    c7f8:	e0966004 	adds	r6, r6, r4
    c7fc:	e24bb001 	sub	fp, fp, #1
    c800:	3a00006c 	bcc	c9b8 <__divdi3+0x498>
    c804:	e0636006 	rsb	r6, r3, r6
    c808:	e1a01008 	mov	r1, r8
    c80c:	e1a00006 	mov	r0, r6
    c810:	ebfffbe5 	bl	b7ac <__aeabi_uidiv>
    c814:	e1a01008 	mov	r1, r8
    c818:	e1a0a000 	mov	sl, r0
    c81c:	e1a00006 	mov	r0, r6
    c820:	ebfffc1e 	bl	b8a0 <__aeabi_uidivmod>
    c824:	e0030a99 	mul	r3, r9, sl
    c828:	e59d2008 	ldr	r2, [sp, #8]
    c82c:	e1a06802 	lsl	r6, r2, #16
    c830:	e1a00826 	lsr	r0, r6, #16
    c834:	e1806801 	orr	r6, r0, r1, lsl #16
    c838:	e1530006 	cmp	r3, r6
    c83c:	9a000005 	bls	c858 <__divdi3+0x338>
    c840:	e0966004 	adds	r6, r6, r4
    c844:	e24aa001 	sub	sl, sl, #1
    c848:	2a000002 	bcs	c858 <__divdi3+0x338>
    c84c:	e1530006 	cmp	r3, r6
    c850:	824aa001 	subhi	sl, sl, #1
    c854:	80866004 	addhi	r6, r6, r4
    c858:	e0636006 	rsb	r6, r3, r6
    c85c:	e18a380b 	orr	r3, sl, fp, lsl #16
    c860:	e58d3008 	str	r3, [sp, #8]
    c864:	eaffff9c 	b	c6dc <__divdi3+0x1bc>
    c868:	e2641020 	rsb	r1, r4, #32
    c86c:	e1a00139 	lsr	r0, r9, r1
    c870:	e1a0213b 	lsr	r2, fp, r1
    c874:	e180a41a 	orr	sl, r0, sl, lsl r4
    c878:	e1a06138 	lsr	r6, r8, r1
    c87c:	e1828418 	orr	r8, r2, r8, lsl r4
    c880:	e1a0380a 	lsl	r3, sl, #16
    c884:	e1a0b82a 	lsr	fp, sl, #16
    c888:	e1a0e823 	lsr	lr, r3, #16
    c88c:	e1a0100b 	mov	r1, fp
    c890:	e1a00006 	mov	r0, r6
    c894:	e58d8008 	str	r8, [sp, #8]
    c898:	e58de00c 	str	lr, [sp, #12]
    c89c:	ebfffbc2 	bl	b7ac <__aeabi_uidiv>
    c8a0:	e1a0100b 	mov	r1, fp
    c8a4:	e1a08000 	mov	r8, r0
    c8a8:	e1a00006 	mov	r0, r6
    c8ac:	ebfffbfb 	bl	b8a0 <__aeabi_uidivmod>
    c8b0:	e59dc00c 	ldr	ip, [sp, #12]
    c8b4:	e002089c 	mul	r2, ip, r8
    c8b8:	e59d3008 	ldr	r3, [sp, #8]
    c8bc:	e1a06823 	lsr	r6, r3, #16
    c8c0:	e1861801 	orr	r1, r6, r1, lsl #16
    c8c4:	e1520001 	cmp	r2, r1
    c8c8:	e1a03419 	lsl	r3, r9, r4
    c8cc:	9a000002 	bls	c8dc <__divdi3+0x3bc>
    c8d0:	e091100a 	adds	r1, r1, sl
    c8d4:	e2488001 	sub	r8, r8, #1
    c8d8:	3a000032 	bcc	c9a8 <__divdi3+0x488>
    c8dc:	e0629001 	rsb	r9, r2, r1
    c8e0:	e1a00009 	mov	r0, r9
    c8e4:	e1a0100b 	mov	r1, fp
    c8e8:	e58d3004 	str	r3, [sp, #4]
    c8ec:	ebfffbae 	bl	b7ac <__aeabi_uidiv>
    c8f0:	e1a0100b 	mov	r1, fp
    c8f4:	e1a06000 	mov	r6, r0
    c8f8:	e1a00009 	mov	r0, r9
    c8fc:	ebfffbe7 	bl	b8a0 <__aeabi_uidivmod>
    c900:	e59d000c 	ldr	r0, [sp, #12]
    c904:	e0020690 	mul	r2, r0, r6
    c908:	e59d3008 	ldr	r3, [sp, #8]
    c90c:	e1a0c803 	lsl	ip, r3, #16
    c910:	e1a0982c 	lsr	r9, ip, #16
    c914:	e1890801 	orr	r0, r9, r1, lsl #16
    c918:	e1520000 	cmp	r2, r0
    c91c:	e59d3004 	ldr	r3, [sp, #4]
    c920:	9a000002 	bls	c930 <__divdi3+0x410>
    c924:	e090000a 	adds	r0, r0, sl
    c928:	e2466001 	sub	r6, r6, #1
    c92c:	3a000019 	bcc	c998 <__divdi3+0x478>
    c930:	e062e000 	rsb	lr, r2, r0
    c934:	e1866808 	orr	r6, r6, r8, lsl #16
    c938:	e1a02826 	lsr	r2, r6, #16
    c93c:	e1a01823 	lsr	r1, r3, #16
    c940:	e1c6c802 	bic	ip, r6, r2, lsl #16
    c944:	e1c39801 	bic	r9, r3, r1, lsl #16
    c948:	e003099c 	mul	r3, ip, r9
    c94c:	e0090992 	mul	r9, r2, r9
    c950:	e00c0c91 	mul	ip, r1, ip
    c954:	e0010192 	mul	r1, r2, r1
    c958:	e099c00c 	adds	ip, r9, ip
    c95c:	22811801 	addcs	r1, r1, #65536	; 0x10000
    c960:	e093380c 	adds	r3, r3, ip, lsl #16
    c964:	e0a1182c 	adc	r1, r1, ip, lsr #16
    c968:	e15e0001 	cmp	lr, r1
    c96c:	3a000006 	bcc	c98c <__divdi3+0x46c>
    c970:	13a02000 	movne	r2, #0
    c974:	03a02001 	moveq	r2, #1
    c978:	e1530415 	cmp	r3, r5, lsl r4
    c97c:	93a09000 	movls	r9, #0
    c980:	82029001 	andhi	r9, r2, #1
    c984:	e3590000 	cmp	r9, #0
    c988:	0affff28 	beq	c630 <__divdi3+0x110>
    c98c:	e2466001 	sub	r6, r6, #1
    c990:	e3a09000 	mov	r9, #0
    c994:	eaffff25 	b	c630 <__divdi3+0x110>
    c998:	e1520000 	cmp	r2, r0
    c99c:	82466001 	subhi	r6, r6, #1
    c9a0:	8080000a 	addhi	r0, r0, sl
    c9a4:	eaffffe1 	b	c930 <__divdi3+0x410>
    c9a8:	e1520001 	cmp	r2, r1
    c9ac:	82488001 	subhi	r8, r8, #1
    c9b0:	8081100a 	addhi	r1, r1, sl
    c9b4:	eaffffc8 	b	c8dc <__divdi3+0x3bc>
    c9b8:	e1530006 	cmp	r3, r6
    c9bc:	824bb001 	subhi	fp, fp, #1
    c9c0:	80866004 	addhi	r6, r6, r4
    c9c4:	eaffff8e 	b	c804 <__divdi3+0x2e4>

0000c9c8 <__udivdi3>:
    c9c8:	e92d4ff0 	push	{r4, r5, r6, r7, r8, r9, sl, fp, lr}
    c9cc:	e2538000 	subs	r8, r3, #0
    c9d0:	e24dd00c 	sub	sp, sp, #12
    c9d4:	e1a05000 	mov	r5, r0
    c9d8:	e1a04001 	mov	r4, r1
    c9dc:	e1a06002 	mov	r6, r2
    c9e0:	e1a0a002 	mov	sl, r2
    c9e4:	e1a0b000 	mov	fp, r0
    c9e8:	e1a07001 	mov	r7, r1
    c9ec:	1a000037 	bne	cad0 <__udivdi3+0x108>
    c9f0:	e1520001 	cmp	r2, r1
    c9f4:	9a000045 	bls	cb10 <__udivdi3+0x148>
    c9f8:	e1a00002 	mov	r0, r2
    c9fc:	eb0000fe 	bl	cdfc <__clzsi2>
    ca00:	e3500000 	cmp	r0, #0
    ca04:	12603020 	rsbne	r3, r0, #32
    ca08:	11a03335 	lsrne	r3, r5, r3
    ca0c:	11a0a016 	lslne	sl, r6, r0
    ca10:	11837014 	orrne	r7, r3, r4, lsl r0
    ca14:	e1a0482a 	lsr	r4, sl, #16
    ca18:	11a0b015 	lslne	fp, r5, r0
    ca1c:	e1a01004 	mov	r1, r4
    ca20:	e1a00007 	mov	r0, r7
    ca24:	ebfffb60 	bl	b7ac <__aeabi_uidiv>
    ca28:	e1a01004 	mov	r1, r4
    ca2c:	e1a08000 	mov	r8, r0
    ca30:	e1a00007 	mov	r0, r7
    ca34:	ebfffb99 	bl	b8a0 <__aeabi_uidivmod>
    ca38:	e1a0680a 	lsl	r6, sl, #16
    ca3c:	e1a06826 	lsr	r6, r6, #16
    ca40:	e0030896 	mul	r3, r6, r8
    ca44:	e1a0782b 	lsr	r7, fp, #16
    ca48:	e1877801 	orr	r7, r7, r1, lsl #16
    ca4c:	e1530007 	cmp	r3, r7
    ca50:	9a000005 	bls	ca6c <__udivdi3+0xa4>
    ca54:	e097700a 	adds	r7, r7, sl
    ca58:	e2488001 	sub	r8, r8, #1
    ca5c:	2a000002 	bcs	ca6c <__udivdi3+0xa4>
    ca60:	e1530007 	cmp	r3, r7
    ca64:	82488001 	subhi	r8, r8, #1
    ca68:	8087700a 	addhi	r7, r7, sl
    ca6c:	e0637007 	rsb	r7, r3, r7
    ca70:	e1a01004 	mov	r1, r4
    ca74:	e1a00007 	mov	r0, r7
    ca78:	ebfffb4b 	bl	b7ac <__aeabi_uidiv>
    ca7c:	e1a01004 	mov	r1, r4
    ca80:	e1a05000 	mov	r5, r0
    ca84:	e1a00007 	mov	r0, r7
    ca88:	ebfffb84 	bl	b8a0 <__aeabi_uidivmod>
    ca8c:	e0060695 	mul	r6, r5, r6
    ca90:	e1a0080b 	lsl	r0, fp, #16
    ca94:	e1a0b820 	lsr	fp, r0, #16
    ca98:	e18bb801 	orr	fp, fp, r1, lsl #16
    ca9c:	e156000b 	cmp	r6, fp
    caa0:	9a000004 	bls	cab8 <__udivdi3+0xf0>
    caa4:	e09bb00a 	adds	fp, fp, sl
    caa8:	e2455001 	sub	r5, r5, #1
    caac:	2a000001 	bcs	cab8 <__udivdi3+0xf0>
    cab0:	e156000b 	cmp	r6, fp
    cab4:	82455001 	subhi	r5, r5, #1
    cab8:	e1858808 	orr	r8, r5, r8, lsl #16
    cabc:	e3a01000 	mov	r1, #0
    cac0:	e1a00008 	mov	r0, r8
    cac4:	e28dd00c 	add	sp, sp, #12
    cac8:	e8bd4ff0 	pop	{r4, r5, r6, r7, r8, r9, sl, fp, lr}
    cacc:	e12fff1e 	bx	lr
    cad0:	e1580001 	cmp	r8, r1
    cad4:	83a01000 	movhi	r1, #0
    cad8:	81a08001 	movhi	r8, r1
    cadc:	8afffff7 	bhi	cac0 <__udivdi3+0xf8>
    cae0:	e1a00008 	mov	r0, r8
    cae4:	eb0000c4 	bl	cdfc <__clzsi2>
    cae8:	e2507000 	subs	r7, r0, #0
    caec:	1a00003e 	bne	cbec <__udivdi3+0x224>
    caf0:	e1580004 	cmp	r8, r4
    caf4:	21560005 	cmpcs	r6, r5
    caf8:	83a01000 	movhi	r1, #0
    cafc:	93a01001 	movls	r1, #1
    cb00:	93a08001 	movls	r8, #1
    cb04:	91a01007 	movls	r1, r7
    cb08:	81a08001 	movhi	r8, r1
    cb0c:	eaffffeb 	b	cac0 <__udivdi3+0xf8>
    cb10:	e3520000 	cmp	r2, #0
    cb14:	1a000003 	bne	cb28 <__udivdi3+0x160>
    cb18:	e3a00001 	mov	r0, #1
    cb1c:	e1a01002 	mov	r1, r2
    cb20:	ebfffb21 	bl	b7ac <__aeabi_uidiv>
    cb24:	e1a0a000 	mov	sl, r0
    cb28:	e1a0000a 	mov	r0, sl
    cb2c:	eb0000b2 	bl	cdfc <__clzsi2>
    cb30:	e2503000 	subs	r3, r0, #0
    cb34:	1a000075 	bne	cd10 <__udivdi3+0x348>
    cb38:	e1a0180a 	lsl	r1, sl, #16
    cb3c:	e06a4004 	rsb	r4, sl, r4
    cb40:	e1a0982a 	lsr	r9, sl, #16
    cb44:	e1a06821 	lsr	r6, r1, #16
    cb48:	e3a07001 	mov	r7, #1
    cb4c:	e1a01009 	mov	r1, r9
    cb50:	e1a00004 	mov	r0, r4
    cb54:	ebfffb14 	bl	b7ac <__aeabi_uidiv>
    cb58:	e1a01009 	mov	r1, r9
    cb5c:	e1a05000 	mov	r5, r0
    cb60:	e1a00004 	mov	r0, r4
    cb64:	ebfffb4d 	bl	b8a0 <__aeabi_uidivmod>
    cb68:	e0030596 	mul	r3, r6, r5
    cb6c:	e1a0282b 	lsr	r2, fp, #16
    cb70:	e1824801 	orr	r4, r2, r1, lsl #16
    cb74:	e1530004 	cmp	r3, r4
    cb78:	9a000005 	bls	cb94 <__udivdi3+0x1cc>
    cb7c:	e094400a 	adds	r4, r4, sl
    cb80:	e2455001 	sub	r5, r5, #1
    cb84:	2a000002 	bcs	cb94 <__udivdi3+0x1cc>
    cb88:	e1530004 	cmp	r3, r4
    cb8c:	82455001 	subhi	r5, r5, #1
    cb90:	8084400a 	addhi	r4, r4, sl
    cb94:	e0634004 	rsb	r4, r3, r4
    cb98:	e1a01009 	mov	r1, r9
    cb9c:	e1a00004 	mov	r0, r4
    cba0:	ebfffb01 	bl	b7ac <__aeabi_uidiv>
    cba4:	e1a01009 	mov	r1, r9
    cba8:	e1a08000 	mov	r8, r0
    cbac:	e1a00004 	mov	r0, r4
    cbb0:	ebfffb3a 	bl	b8a0 <__aeabi_uidivmod>
    cbb4:	e0060698 	mul	r6, r8, r6
    cbb8:	e1a0b80b 	lsl	fp, fp, #16
    cbbc:	e1a0382b 	lsr	r3, fp, #16
    cbc0:	e183b801 	orr	fp, r3, r1, lsl #16
    cbc4:	e156000b 	cmp	r6, fp
    cbc8:	9a000004 	bls	cbe0 <__udivdi3+0x218>
    cbcc:	e09bb00a 	adds	fp, fp, sl
    cbd0:	e2488001 	sub	r8, r8, #1
    cbd4:	2a000001 	bcs	cbe0 <__udivdi3+0x218>
    cbd8:	e156000b 	cmp	r6, fp
    cbdc:	82488001 	subhi	r8, r8, #1
    cbe0:	e1888805 	orr	r8, r8, r5, lsl #16
    cbe4:	e1a01007 	mov	r1, r7
    cbe8:	eaffffb4 	b	cac0 <__udivdi3+0xf8>
    cbec:	e267a020 	rsb	sl, r7, #32
    cbf0:	e1a01a36 	lsr	r1, r6, sl
    cbf4:	e1a02a35 	lsr	r2, r5, sl
    cbf8:	e1818718 	orr	r8, r1, r8, lsl r7
    cbfc:	e1a0ba34 	lsr	fp, r4, sl
    cc00:	e1829714 	orr	r9, r2, r4, lsl r7
    cc04:	e1a0a828 	lsr	sl, r8, #16
    cc08:	e1a0e808 	lsl	lr, r8, #16
    cc0c:	e1a0100a 	mov	r1, sl
    cc10:	e1a0000b 	mov	r0, fp
    cc14:	e1a0482e 	lsr	r4, lr, #16
    cc18:	e58d9004 	str	r9, [sp, #4]
    cc1c:	ebfffae2 	bl	b7ac <__aeabi_uidiv>
    cc20:	e1a0100a 	mov	r1, sl
    cc24:	e1a09000 	mov	r9, r0
    cc28:	e1a0000b 	mov	r0, fp
    cc2c:	ebfffb1b 	bl	b8a0 <__aeabi_uidivmod>
    cc30:	e0020994 	mul	r2, r4, r9
    cc34:	e59d0004 	ldr	r0, [sp, #4]
    cc38:	e1a0c820 	lsr	ip, r0, #16
    cc3c:	e18cb801 	orr	fp, ip, r1, lsl #16
    cc40:	e152000b 	cmp	r2, fp
    cc44:	e1a03716 	lsl	r3, r6, r7
    cc48:	9a000002 	bls	cc58 <__udivdi3+0x290>
    cc4c:	e09bb008 	adds	fp, fp, r8
    cc50:	e2499001 	sub	r9, r9, #1
    cc54:	3a000060 	bcc	cddc <__udivdi3+0x414>
    cc58:	e062b00b 	rsb	fp, r2, fp
    cc5c:	e1a0100a 	mov	r1, sl
    cc60:	e1a0000b 	mov	r0, fp
    cc64:	e58d3000 	str	r3, [sp]
    cc68:	ebfffacf 	bl	b7ac <__aeabi_uidiv>
    cc6c:	e1a0100a 	mov	r1, sl
    cc70:	e1a06000 	mov	r6, r0
    cc74:	e1a0000b 	mov	r0, fp
    cc78:	ebfffb08 	bl	b8a0 <__aeabi_uidivmod>
    cc7c:	e0040496 	mul	r4, r6, r4
    cc80:	e59d0004 	ldr	r0, [sp, #4]
    cc84:	e1a0c800 	lsl	ip, r0, #16
    cc88:	e1a0382c 	lsr	r3, ip, #16
    cc8c:	e1832801 	orr	r2, r3, r1, lsl #16
    cc90:	e1540002 	cmp	r4, r2
    cc94:	e59d3000 	ldr	r3, [sp]
    cc98:	9a000002 	bls	cca8 <__udivdi3+0x2e0>
    cc9c:	e0922008 	adds	r2, r2, r8
    cca0:	e2466001 	sub	r6, r6, #1
    cca4:	3a000048 	bcc	cdcc <__udivdi3+0x404>
    cca8:	e0644002 	rsb	r4, r4, r2
    ccac:	e1868809 	orr	r8, r6, r9, lsl #16
    ccb0:	e1a02828 	lsr	r2, r8, #16
    ccb4:	e1a0e823 	lsr	lr, r3, #16
    ccb8:	e1c80802 	bic	r0, r8, r2, lsl #16
    ccbc:	e1c3680e 	bic	r6, r3, lr, lsl #16
    ccc0:	e0030690 	mul	r3, r0, r6
    ccc4:	e0060692 	mul	r6, r2, r6
    ccc8:	e000009e 	mul	r0, lr, r0
    cccc:	e00e0e92 	mul	lr, r2, lr
    ccd0:	e0960000 	adds	r0, r6, r0
    ccd4:	228ee801 	addcs	lr, lr, #65536	; 0x10000
    ccd8:	e0933800 	adds	r3, r3, r0, lsl #16
    ccdc:	e0aee820 	adc	lr, lr, r0, lsr #16
    cce0:	e154000e 	cmp	r4, lr
    cce4:	3a000006 	bcc	cd04 <__udivdi3+0x33c>
    cce8:	13a02000 	movne	r2, #0
    ccec:	03a02001 	moveq	r2, #1
    ccf0:	e1530715 	cmp	r3, r5, lsl r7
    ccf4:	93a01000 	movls	r1, #0
    ccf8:	82021001 	andhi	r1, r2, #1
    ccfc:	e3510000 	cmp	r1, #0
    cd00:	0affff6e 	beq	cac0 <__udivdi3+0xf8>
    cd04:	e2488001 	sub	r8, r8, #1
    cd08:	e3a01000 	mov	r1, #0
    cd0c:	eaffff6b 	b	cac0 <__udivdi3+0xf8>
    cd10:	e2639020 	rsb	r9, r3, #32
    cd14:	e1a0a31a 	lsl	sl, sl, r3
    cd18:	e1a07934 	lsr	r7, r4, r9
    cd1c:	e1a08935 	lsr	r8, r5, r9
    cd20:	e1a0982a 	lsr	r9, sl, #16
    cd24:	e1a0280a 	lsl	r2, sl, #16
    cd28:	e1a01009 	mov	r1, r9
    cd2c:	e1a00007 	mov	r0, r7
    cd30:	e1888314 	orr	r8, r8, r4, lsl r3
    cd34:	e1a0b315 	lsl	fp, r5, r3
    cd38:	e1a06822 	lsr	r6, r2, #16
    cd3c:	ebfffa9a 	bl	b7ac <__aeabi_uidiv>
    cd40:	e1a01009 	mov	r1, r9
    cd44:	e1a05000 	mov	r5, r0
    cd48:	e1a00007 	mov	r0, r7
    cd4c:	ebfffad3 	bl	b8a0 <__aeabi_uidivmod>
    cd50:	e0030596 	mul	r3, r6, r5
    cd54:	e1a04828 	lsr	r4, r8, #16
    cd58:	e1844801 	orr	r4, r4, r1, lsl #16
    cd5c:	e1530004 	cmp	r3, r4
    cd60:	9a000002 	bls	cd70 <__udivdi3+0x3a8>
    cd64:	e094400a 	adds	r4, r4, sl
    cd68:	e2455001 	sub	r5, r5, #1
    cd6c:	3a00001e 	bcc	cdec <__udivdi3+0x424>
    cd70:	e0634004 	rsb	r4, r3, r4
    cd74:	e1a01009 	mov	r1, r9
    cd78:	e1a00004 	mov	r0, r4
    cd7c:	ebfffa8a 	bl	b7ac <__aeabi_uidiv>
    cd80:	e1a01009 	mov	r1, r9
    cd84:	e1a07000 	mov	r7, r0
    cd88:	e1a00004 	mov	r0, r4
    cd8c:	ebfffac3 	bl	b8a0 <__aeabi_uidivmod>
    cd90:	e0030796 	mul	r3, r6, r7
    cd94:	e1a00808 	lsl	r0, r8, #16
    cd98:	e1a0c820 	lsr	ip, r0, #16
    cd9c:	e18c4801 	orr	r4, ip, r1, lsl #16
    cda0:	e1530004 	cmp	r3, r4
    cda4:	9a000005 	bls	cdc0 <__udivdi3+0x3f8>
    cda8:	e094400a 	adds	r4, r4, sl
    cdac:	e2477001 	sub	r7, r7, #1
    cdb0:	2a000002 	bcs	cdc0 <__udivdi3+0x3f8>
    cdb4:	e1530004 	cmp	r3, r4
    cdb8:	82477001 	subhi	r7, r7, #1
    cdbc:	8084400a 	addhi	r4, r4, sl
    cdc0:	e0634004 	rsb	r4, r3, r4
    cdc4:	e1877805 	orr	r7, r7, r5, lsl #16
    cdc8:	eaffff5f 	b	cb4c <__udivdi3+0x184>
    cdcc:	e1540002 	cmp	r4, r2
    cdd0:	82466001 	subhi	r6, r6, #1
    cdd4:	80822008 	addhi	r2, r2, r8
    cdd8:	eaffffb2 	b	cca8 <__udivdi3+0x2e0>
    cddc:	e152000b 	cmp	r2, fp
    cde0:	82499001 	subhi	r9, r9, #1
    cde4:	808bb008 	addhi	fp, fp, r8
    cde8:	eaffff9a 	b	cc58 <__udivdi3+0x290>
    cdec:	e1530004 	cmp	r3, r4
    cdf0:	82455001 	subhi	r5, r5, #1
    cdf4:	8084400a 	addhi	r4, r4, sl
    cdf8:	eaffffdc 	b	cd70 <__udivdi3+0x3a8>

0000cdfc <__clzsi2>:
    cdfc:	e3a0101c 	mov	r1, #28
    ce00:	e3500801 	cmp	r0, #65536	; 0x10000
    ce04:	21a00820 	lsrcs	r0, r0, #16
    ce08:	22411010 	subcs	r1, r1, #16
    ce0c:	e3500c01 	cmp	r0, #256	; 0x100
    ce10:	21a00420 	lsrcs	r0, r0, #8
    ce14:	22411008 	subcs	r1, r1, #8
    ce18:	e3500010 	cmp	r0, #16
    ce1c:	21a00220 	lsrcs	r0, r0, #4
    ce20:	22411004 	subcs	r1, r1, #4
    ce24:	e28f2008 	add	r2, pc, #8
    ce28:	e7d20000 	ldrb	r0, [r2, r0]
    ce2c:	e0800001 	add	r0, r0, r1
    ce30:	e12fff1e 	bx	lr
    ce34:	02020304 	.word	0x02020304
    ce38:	01010101 	.word	0x01010101
	...
